A0021 00 AMB SRVC OTSD ST AMBULANCE NonFacility $ 2.42
A0160 00 NONEMERG TRNSPRT AMBULANCE NonFacility $ 0.15
A0225 00 AMB SRVC NEONAT AMBULANCE NonFacility $ 135.82
A0380 00 BLS MILEAGE AMBULANCE NonFacility $ 1.97
A0382 00 BLS ROUTINE DISP AMBULANCE NonFacility $ 3.18
A0384 00 BLS SPCLIZED SRV AMBULANCE NonFacility $ 16.22
A0390 00 ALS MILEAGE AMBULANCE NonFacility $ 1.97
A0392 00 ALS SPCLIZED SRV AMBULANCE NonFacility $ 16.22
A0394 00 ALS SPCLIZED SRV AMBULANCE NonFacility $ 7.73
A0396 00 ALS SPCLIZD SRVC AMBULANCE NonFacility $ 13.04
A0398 00 ALS ROUTINE DISP AMBULANCE NonFacility $ 3.18
A0422 00 AMB OXYGEN&O2 SP AMBULANCE NonFacility $ 11.98
A0425 00 GROUND MILEAGE P AMBULANCE NonFacility $ 2.42
A0426 00 AMB SRVC ALS NON AMBULANCE NonFacility $ 90.37
A0427 00 AMB SRVC ALS EME AMBULANCE NonFacility $ 143.08
A0428 00 AMB SERVICE BLS AMBULANCE NonFacility $ 75.30
A0429 00 AMB SERVICE BLS AMBULANCE NonFacility $ 120.49
A0430 00 FIXED WING AIR T AMBULANCE NonFacility $ 1011.86
A0431 00 ROTARY WING AIR AMBULANCE NonFacility $ 1176.43
A0432 00 PI VOLUNTEER AMB AMBULANCE NonFacility $ 131.78
A0433 00 ALS 2 AMBULANCE NonFacility $ 207.09
A0434 00 SPECIALTY CARE T AMBULANCE NonFacility $ 244.74
A0435 00 FIXED WING AIR M AMBULANCE NonFacility $ 2.87
A0436 00 ROTARY WING AIR AMBULANCE NonFacility $ 7.66
A4206 00 SYRINGE WITH NEE DME & SUPPLIES NonFacility $ 0.23
A4208 00 SYRINGE W/NEEDLE DME & SUPPLIES NonFacility $ 0.23
A4209 00 SYRINGE W/NEEDLE DME & SUPPLIES NonFacility $ 0.23
A4210 00 NEEDLE-FREE INJE DME & SUPPLIES NonFacility $ 438.85
A4212 00 NON CORING NDLE/ DME & SUPPLIES NonFacility $ 4.32
A4213 00 SYRINGE STERILE DME & SUPPLIES NonFacility $ 0.46
A4216 00 STERIL WATER SAL DME & SUPPLIES NonFacility $ 0.23
A4217 00 STERILE WATER/SA DME & SUPPLIES NonFacility $ 1.60
A4221 00 SUPPLIES FOR MAI DME & SUPPLIES NonFacility $ 11.54
A4222 00 INFUS SPL EXT RX DME & SUPPLIES NonFacility $ 23.83
A4224 00 SUPPLIES MAINTEN DME & SUPPLIES NonFacility $ 11.64
A4225 00 SPL EXT INSULIN DME & SUPPLIES NonFacility $ 1.56
A4232 00 SYRINGE W/NDLE E DME & SUPPLIES NonFacility $ 1.57
A4233 00 REPL BATT ALKALI DME & SUPPLIES NonFacility $ 0.41
A4233 NU REPL BATT ALKALI DME & SUPPLIES NonFacility $ 0.41
A4234 00 REPL BATT ALKALI DME & SUPPLIES NonFacility $ 1.85
A4234 NU REPL BATT ALKALI DME & SUPPLIES NonFacility $ 1.85
A4235 00 REPL BATT LITHIU DME & SUPPLIES NonFacility $ 1.19
A4235 NU REPL BATT LITHIU DME & SUPPLIES NonFacility $ 1.19
A4236 00 REPL BATT SILVER DME & SUPPLIES NonFacility $ 0.86
A4236 NU REPL BATT SILVER DME & SUPPLIES NonFacility $ 0.86
A4244 00 ALCOHOL OR PEROX DME & SUPPLIES NonFacility $ 0.46
A4245 00 ALCOHOL WIPES PE DME & SUPPLIES NonFacility $ 1.36
A4246 00 BETADINE/PHISOHE DME & SUPPLIES NonFacility $ 1.59
A4247 00 BETADINE/IODINE DME & SUPPLIES NonFacility $ 2.50
A4248 00 CHLORHEXIDINE CO INJECTABLES/OTHER DRUGS NonFacility $ 0.01
A4250 00 URINE TEST/REAGE DME & SUPPLIES NonFacility $ 8.87
A4253 00 BLD GLU TST/REAG DME & SUPPLIES NonFacility $ 19.64
A4253 NU BLD GLU TST/REAG DME & SUPPLIES NonFacility $ 19.64
A4255 00 PLATFORMS HOM BL DME & SUPPLIES NonFacility $ 2.09
A4256 00 NORMAL LOW&HI CA DME & SUPPLIES NonFacility $ 5.83
A4257 00 REPL LENS SHIELD DME & SUPPLIES NonFacility $ 6.50
A4258 00 SPRING-POWERED D DME & SUPPLIES NonFacility $ 9.20
A4259 00 LANCETS PER BOX DME & SUPPLIES NonFacility $ 6.50
A4262 00 TEMP ABSORB LAC DME & SUPPLIES NonFacility $ 0.23
A4263 00 PERM NONDISSOLV DME & SUPPLIES NonFacility $ 20.24
A4265 00 PARAFFIN PER POU DME & SUPPLIES NonFacility $ 1.73
A4267 00 CONTRACEPTIVE SU DME & SUPPLIES NonFacility $ 0.23
A4269 00 CONTRACEPTIVE SU DME & SUPPLIES NonFacility $ 0.46
A4280 00 ADHES SKN SUPP A DME & SUPPLIES NonFacility $ 2.68
A4284 00 BREAST SHIELD&SP DME & SUPPLIES NonFacility $ 9.10
A4290 00 SACRAL NERVE STI DME & SUPPLIES NonFacility $ 62.92
A4300 00 IMPL ACSS CATHET DME & SUPPLIES NonFacility $ 5.91
A4305 00 DISPBL RX DEL SY DME & SUPPLIES NonFacility $ 6.59
A4306 00 DISPOSABL DRUG D DME & SUPPLIES NonFacility $ 9.10
A4310 00 INSRTION TRAY W/ DME & SUPPLIES NonFacility $ 3.94
A4311 00 INSRTION TRAY W/ DME & SUPPLIES NonFacility $ 7.57
A4312 00 INSRTION TRAY W/ DME & SUPPLIES NonFacility $ 9.20
A4313 00 INSRTION TRAY W/ DME & SUPPLIES NonFacility $ 9.44
A4314 00 INSRTION TRAY W/ DME & SUPPLIES NonFacility $ 12.90
A4315 00 INSRTION TRAY W/ DME & SUPPLIES NonFacility $ 13.46
A4316 00 INSRTION TRAY W/ DME & SUPPLIES NonFacility $ 14.48
A4320 00 IRRIG TRAY W/BUL DME & SUPPLIES NonFacility $ 2.72
A4322 00 IRRIGATION SYRIN DME & SUPPLIES NonFacility $ 1.55
A4326 00 MALE EXT CATH W/ DME & SUPPLIES NonFacility $ 5.50
A4327 00 FE EXT URIN CLCT DME & SUPPLIES NonFacility $ 22.76
A4328 00 FE EXT URIN CLCT DME & SUPPLIES NonFacility $ 5.33
A4330 00 PERIAN FECAL CLC DME & SUPPLIES NonFacility $ 3.65
A4331 00 EXT DRN TUBING W DME & SUPPLIES NonFacility $ 1.62
A4332 00 LUBRICANT INDIVI DME & SUPPLIES NonFacility $ 0.06
A4333 00 URIN CATH ANCHR DME & SUPPLIES NonFacility $ 1.12
A4334 00 URIN CATH ANCHR DME & SUPPLIES NonFacility $ 2.51
A4336 00 INCONTINENCE SUP DME & SUPPLIES NonFacility $ 0.77
A4338 00 INDWLL CATH; 2-W DME & SUPPLIES NonFacility $ 6.25
A4340 00 INDWELL CATHETER DME & SUPPLIES NonFacility $ 16.19
A4344 00 INDWLL CATH FOLE DME & SUPPLIES NonFacility $ 8.17
A4346 00 INDWLL CATH; FOL DME & SUPPLIES NonFacility $ 9.99
A4349 00 MALE EXTERNAL CA DME & SUPPLIES NonFacility $ 1.03
A4351 00 INTERMIT URIN CA DME & SUPPLIES NonFacility $ 0.92
A4352 00 INTERMIT URIN CA DME & SUPPLIES NonFacility $ 3.28
A4353 00 INTERMIT URIN CA DME & SUPPLIES NonFacility $ 3.57
A4354 00 INSRTION TRAY W/ DME & SUPPLIES NonFacility $ 6.02
A4355 00 IRRIG TUBING CON DME & SUPPLIES NonFacility $ 4.54
A4356 00 EXT URETHRAL CLA DME & SUPPLIES NonFacility $ 23.27
A4357 00 BEDSID DRN BAG D DME & SUPPLIES NonFacility $ 4.95
A4358 00 URINARY LEG BAG; DME & SUPPLIES NonFacility $ 3.38
A4360 00 DISPSBL EXT URET DME & SUPPLIES NonFacility $ 0.26
A4361 00 OSTOMY FACEPLATE DME & SUPPLIES - OSTOMY NonFacility $ 9.37
A4362 00 SKN BARRIER; SOL DME & SUPPLIES - OSTOMY NonFacility $ 1.76
A4363 00 OSTOMY CLAMP ANY DME & SUPPLIES - OSTOMY NonFacility $ 1.21
A4364 00 ADHES LIQUID/EQU DME & SUPPLIES - OSTOMY NonFacility $ 1.49
A4366 00 OSTOMY VENT ANY DME & SUPPLIES - OSTOMY NonFacility $ 0.67
A4367 00 OSTOMY BELT EACH DME & SUPPLIES - OSTOMY NonFacility $ 3.75
A4368 00 OSTOMY FILTER AN DME & SUPPLIES - OSTOMY NonFacility $ 0.13
A4369 00 OSTOMY SKIN BARR DME & SUPPLIES - OSTOMY NonFacility $ 1.24
A4371 00 OSTOMY SKIN BARR DME & SUPPLIES - OSTOMY NonFacility $ 1.86
A4372 00 OST SKIN BARR SO DME & SUPPLIES - OSTOMY NonFacility $ 2.13
A4373 00 OST SKN BARR W/F DME & SUPPLIES - OSTOMY NonFacility $ 3.20
A4375 00 OST POUCH DRNABL DME & SUPPLIES - OSTOMY NonFacility $ 8.76
A4376 00 OST POUCH DRNABL DME & SUPPLIES - OSTOMY NonFacility $ 24.26
A4377 00 OST POUCH DRNABL DME & SUPPLIES - OSTOMY NonFacility $ 2.19
A4378 00 OST POUCH DRAINA DME & SUPPLIES - OSTOMY NonFacility $ 15.68
A4379 00 OST POUCH URIN W DME & SUPPLIES - OSTOMY NonFacility $ 7.66
A4380 00 OST POUCH URIN W DME & SUPPLIES - OSTOMY NonFacility $ 19.04
A4381 00 OST POUCH URIN U DME & SUPPLIES - OSTOMY NonFacility $ 2.35
A4382 00 OST POUCH URIN F DME & SUPPLIES - OSTOMY NonFacility $ 12.56
A4383 00 OST POUCH URIN U DME & SUPPLIES - OSTOMY NonFacility $ 14.38
A4384 00 OST FCEPLAT EQUV DME & SUPPLIES - OSTOMY NonFacility $ 4.91
A4385 00 OST SKN BARRIER DME & SUPPLIES - OSTOMY NonFacility $ 2.60
A4387 00 OST POUCH CLOS W DME & SUPPLIES - OSTOMY NonFacility $ 2.38
A4388 00 OST POUCH DRAINA DME & SUPPLIES - OSTOMY NonFacility $ 2.23
A4389 00 OST POUCH DRNABL DME & SUPPLIES - OSTOMY NonFacility $ 3.17
A4390 00 OST POUCH DRNABL DME & SUPPLIES - OSTOMY NonFacility $ 4.90
A4391 00 OSTOMY POUCH URI DME & SUPPLIES - OSTOMY NonFacility $ 3.61
A4392 00 OST POUCH URIN S DME & SUPPLIES - OSTOMY NonFacility $ 4.17
A4393 00 OST POUCH URIN E DME & SUPPLIES - OSTOMY NonFacility $ 4.61
A4394 00 OSTOMY DEODORANT DME & SUPPLIES - OSTOMY NonFacility $ 1.31
A4395 00 OST DEODORANT OS DME & SUPPLIES - OSTOMY NonFacility $ 0.02
A4396 00 PERISTOMAL HERNI DME & SUPPLIES - OSTOMY NonFacility $ 20.65
A4397 00 IRRIGATION SUPPL DME & SUPPLIES - OSTOMY NonFacility $ 2.44
A4398 00 OSTOMY IRRIGATIO DME & SUPPLIES - OSTOMY NonFacility $ 7.04
A4399 00 OSTOMY IRRIGATIO DME & SUPPLIES - OSTOMY NonFacility $ 6.25
A4400 00 OSTOMY IRRIGATIO DME & SUPPLIES - OSTOMY NonFacility $ 24.92
A4402 00 LUBRICANT PER OU DME & SUPPLIES - OSTOMY NonFacility $ 0.82
A4404 00 OSTOMY RING EACH DME & SUPPLIES - OSTOMY NonFacility $ 0.86
A4405 00 OSTOMY SKIN BARR DME & SUPPLIES - OSTOMY NonFacility $ 1.73
A4406 00 OSTOMY SKIN BARR DME & SUPPLIES - OSTOMY NonFacility $ 2.93
A4407 00 OST SKN BARRIER DME & SUPPLIES - OSTOMY NonFacility $ 4.47
A4408 00 OST SKN BARRIER DME & SUPPLIES - OSTOMY NonFacility $ 5.03
A4409 00 OST SKN BARR EXT DME & SUPPLIES - OSTOMY NonFacility $ 3.17
A4410 00 OST SKN BARR EXT DME & SUPPLIES - OSTOMY NonFacility $ 4.61
A4411 00 OST SKN BARRIER DME & SUPPLIES - OSTOMY NonFacility $ 2.60
A4412 00 OST POUCH DRNABL DME & SUPPLIES - OSTOMY NonFacility $ 1.38
A4413 00 OST POUCH DRNABL DME & SUPPLIES - OSTOMY NonFacility $ 2.81
A4414 00 OST SKN BARRIER DME & SUPPLIES - OSTOMY NonFacility $ 2.51
A4415 00 OST SKN BARRIER DME & SUPPLIES - OSTOMY NonFacility $ 3.06
A4416 00 OSTOMY POUCH CLO DME & SUPPLIES - OSTOMY NonFacility $ 1.40
A4417 00 OST POUCH CLO W/ DME & SUPPLIES - OSTOMY NonFacility $ 1.90
A4418 00 OSTOMY POUCH CLO DME & SUPPLIES - OSTOMY NonFacility $ 0.92
A4419 00 OST POUCH CLOS; DME & SUPPLIES - OSTOMY NonFacility $ 0.89
A4422 00 OST ABSORBNT MAT DME & SUPPLIES - OSTOMY NonFacility $ 0.06
A4423 00 OST POUCH CLOS; DME & SUPPLIES - OSTOMY NonFacility $ 0.95
A4424 00 OSTOMY POUCH DRA DME & SUPPLIES - OSTOMY NonFacility $ 2.42
A4425 00 OST POUCH DRNABL DME & SUPPLIES - OSTOMY NonFacility $ 1.82
A4426 00 OST POUCH DRAINA DME & SUPPLIES - OSTOMY NonFacility $ 1.39
A4427 00 OST POUCH DRNABL DME & SUPPLIES - OSTOMY NonFacility $ 1.42
A4428 00 OST POUCH URIN W DME & SUPPLIES - OSTOMY NonFacility $ 3.32
A4429 00 OST POUCH URIN W DME & SUPPLIES - OSTOMY NonFacility $ 4.21
A4430 00 OST POUCH URIN W DME & SUPPLIES - OSTOMY NonFacility $ 4.34
A4431 00 OST POUCH URIN; DME & SUPPLIES - OSTOMY NonFacility $ 3.17
A4432 00 OST POUCH URIN; DME & SUPPLIES - OSTOMY NonFacility $ 1.83
A4433 00 OSTOMY POUCH URI DME & SUPPLIES - OSTOMY NonFacility $ 1.70
A4434 00 OST POUCH URIN; DME & SUPPLIES - OSTOMY NonFacility $ 1.92
A4435 00 OST POUCH DRAIN DME & SUPPLIES - OSTOMY NonFacility $ 3.19
A4450 00 TAPE NON-WATERPR DME & SUPPLIES NonFacility $ 0.05
A4452 00 TAPE WATERPROOF DME & SUPPLIES NonFacility $ 0.20
A4455 00 ADHESIVE REMOVER DME & SUPPLIES NonFacility $ 0.73
A4456 00 ADHESIVE REMOVER DME & SUPPLIES NonFacility $ 0.13
A4461 00 SURGICAL DRESSIN DME & SUPPLIES NonFacility $ 1.68
A4463 00 SURGICAL DRESSIN DME & SUPPLIES NonFacility $ 6.79
A4465 00 NONELASTIC BINDE DME & SUPPLIES NonFacility $ 4.78
A4470 00 GRAVLEE JET WASH DME & SUPPLIES NonFacility $ 3.19
A4480 00 VABRA ASPIRATOR DME & SUPPLIES NonFacility $ 2.50
A4481 00 TRACHEOSTOMA FLT DME & SUPPLIES NonFacility $ 0.19
A4490 00 SURGICAL STK ABO DME & SUPPLIES NonFacility $ 3.41
A4495 00 SURGICAL STOCKIN DME & SUPPLIES NonFacility $ 3.41
A4500 00 SURGICAL STK BEL DME & SUPPLIES NonFacility $ 2.50
A4510 00 SURGICAL STOCKIN DME & SUPPLIES NonFacility $ 6.14
A4550 00 SURGICAL TRAYS DME & SUPPLIES NonFacility $ 15.01
A4554 00 DISPOSABLE UNDER DME & SUPPLIES NonFacility $ 1.59
A4556 00 ELECTRODES PER DME & SUPPLIES NonFacility $ 6.19
A4557 00 LEAD WIRES PER DME & SUPPLIES NonFacility $ 10.76
A4558 00 CONDUCTIVE GEL/P DME & SUPPLIES NonFacility $ 2.78
A4559 00 COUPLING GEL/PAS DME & SUPPLIES NonFacility $ 0.05
A4561 00 PESSARY RUBBER DME & SUPPLIES NonFacility $ 10.24
A4562 00 PESSARY NON RUBB DME & SUPPLIES NonFacility $ 25.47
A4565 00 SLINGS DME & SUPPLIES NonFacility $ 4.43
A4570 00 SPLINTS DME & SUPPLIES NonFacility $ 8.87
A4590 00 SPECIAL CAST MAT DME & SUPPLIES NonFacility $ 19.78
A4595 00 ELECTRICAL STIMU DME & SUPPLIES NonFacility $ 14.69
A4602 00 REPL BA EXT INFU DME & SUPPLIES NonFacility $ 2.11
A4602 NU REPL BA EXT INFU DME & SUPPLIES NonFacility $ 2.11
A4602 RR REPL BA EXT INFU DME & SUPPLIES NonFacility $ 0.23
A4602 UE REPL BA EXT INFU DME & SUPPLIES NonFacility $ 1.59
A4604 00 TUBING W/INTGR H DME & SUPPLIES NonFacility $ 34.07
A4604 NU TUBING W/INTGR H DME & SUPPLIES NonFacility $ 34.07
A4604 RR TUBING W/INTGR H DME & SUPPLIES NonFacility $ 2.27
A4604 UE TUBING W/INTGR H DME & SUPPLIES NonFacility $ 17.28
A4605 00 TRACHEAL SUCTION DME & SUPPLIES NonFacility $ 8.36
A4605 NU TRACHEAL SUCTION DME & SUPPLIES NonFacility $ 8.36
A4605 RR TRACHEAL SUCTION DME & SUPPLIES NonFacility $ 0.91
A4605 UE TRACHEAL SUCTION DME & SUPPLIES NonFacility $ 7.28
A4608 00 TRANSTRACHEAL OX DME & SUPPLIES NonFacility $ 29.66
A4611 00 BATTRY HEVY DUTY DME & SUPPLIES NonFacility $ 100.19
A4611 NU BATTRY HEVY DUTY DME & SUPPLIES NonFacility $ 100.19
A4611 RR BATTRY HEVY DUTY DME & SUPPLIES NonFacility $ 10.39
A4611 UE BATTRY HEVY DUTY DME & SUPPLIES NonFacility $ 75.14
A4612 00 BATTRY CABLES; R DME & SUPPLIES NonFacility $ 40.76
A4612 NU BATTRY CABLES; R DME & SUPPLIES NonFacility $ 40.76
A4612 RR BATTRY CABLES; R DME & SUPPLIES NonFacility $ 4.15
A4612 UE BATTRY CABLES; R DME & SUPPLIES NonFacility $ 31.09
A4613 00 BATTRY CHARGER; DME & SUPPLIES NonFacility $ 73.55
A4613 NU BATTRY CHARGER; DME & SUPPLIES NonFacility $ 73.55
A4613 RR BATTRY CHARGER; DME & SUPPLIES NonFacility $ 7.36
A4613 UE BATTRY CHARGER; DME & SUPPLIES NonFacility $ 53.19
A4614 00 PEAK EXPIRATORY DME & SUPPLIES NonFacility $ 12.13
A4615 00 CANNULA NASAL DME & SUPPLIES NonFacility $ 0.43
A4616 00 TUBING PER FOOT DME & SUPPLIES NonFacility $ 0.04
A4617 00 MOUTHPIECE DME & SUPPLIES NonFacility $ 1.83
A4618 00 BREATHING CIRCUI DME & SUPPLIES NonFacility $ 4.54
A4618 NU BREATHING CIRCUI DME & SUPPLIES NonFacility $ 4.54
A4618 RR BREATHING CIRCUI DME & SUPPLIES NonFacility $ 0.52
A4618 UE BREATHING CIRCUI DME & SUPPLIES NonFacility $ 3.40
A4619 00 FACE TENT DME & SUPPLIES NonFacility $ 0.62
A4619 NU FACE TENT DME & SUPPLIES NonFacility $ 0.62
A4620 00 VARIABLE CONCENT DME & SUPPLIES NonFacility $ 0.37
A4623 00 TRACHEOSTOMY INN DME & SUPPLIES NonFacility $ 3.34
A4624 00 TRACHEAL SUCTN C DME & SUPPLIES NonFacility $ 1.34
A4624 NU TRACHEAL SUCTN C DME & SUPPLIES NonFacility $ 1.34
A4624 RR TRACHEAL SUCTN C DME & SUPPLIES NonFacility $ 0.23
A4624 UE TRACHEAL SUCTN C DME & SUPPLIES NonFacility $ 1.13
A4625 00 TRACHEOST CARE K DME & SUPPLIES NonFacility $ 3.53
A4626 00 TRACHEOSTOMY CLE DME & SUPPLIES NonFacility $ 1.63
A4627 00 SPACR BAG/RESRVO DME & SUPPLIES NonFacility $ 8.64
A4628 00 OROPHARYNGEAL SU DME & SUPPLIES NonFacility $ 1.91
A4628 NU OROPHARYNGEAL SU DME & SUPPLIES NonFacility $ 1.91
A4628 RR OROPHARYNGEAL SU DME & SUPPLIES NonFacility $ 0.23
A4628 UE OROPHARYNGEAL SU DME & SUPPLIES NonFacility $ 1.59
A4629 00 TRACHEOST CARE K DME & SUPPLIES NonFacility $ 2.36
A4630 00 REPLCMT BATTRY M DME & SUPPLIES NonFacility $ 3.19
A4630 NU REPLCMT BATTRY M DME & SUPPLIES NonFacility $ 3.19
A4630 RR REPLCMT BATTRY M DME & SUPPLIES NonFacility $ 0.46
A4630 UE REPLCMT BATTRY M DME & SUPPLIES NonFacility $ 2.73
A4633 00 REPLCMT BULB/LAM DME & SUPPLIES NonFacility $ 20.93
A4633 NU REPLCMT BULB/LAM DME & SUPPLIES NonFacility $ 20.93
A4633 RR REPLCMT BULB/LAM DME & SUPPLIES NonFacility $ 2.50
A4633 UE REPLCMT BULB/LAM DME & SUPPLIES NonFacility $ 18.42
A4635 00 UNDERARM PAD CRU DME & SUPPLIES NonFacility $ 2.61
A4635 NU UNDERARM PAD CRU DME & SUPPLIES NonFacility $ 2.61
A4635 RR UNDERARM PAD CRU DME & SUPPLIES NonFacility $ 0.35
A4635 UE UNDERARM PAD CRU DME & SUPPLIES NonFacility $ 1.73
A4636 00 REPL HANDGRIP CA DME & SUPPLIES NonFacility $ 2.15
A4636 NU REPL HANDGRIP CA DME & SUPPLIES NonFacility $ 2.15
A4636 RR REPL HANDGRIP CA DME & SUPPLIES NonFacility $ 0.22
A4636 UE REPL HANDGRIP CA DME & SUPPLIES NonFacility $ 1.57
A4637 00 REPL TIP CANE CR DME & SUPPLIES NonFacility $ 1.09
A4637 NU REPL TIP CANE CR DME & SUPPLIES NonFacility $ 1.09
A4637 RR REPL TIP CANE CR DME & SUPPLIES NonFacility $ 0.16
A4637 UE REPL TIP CANE CR DME & SUPPLIES NonFacility $ 0.82
A4639 00 REPLACEMENT PAD DME & SUPPLIES NonFacility $ 171.45
A4639 NU REPLACEMENT PAD DME & SUPPLIES NonFacility $ 171.45
A4639 RR REPLACEMENT PAD DME & SUPPLIES NonFacility $ 16.03
A4639 UE REPLACEMENT PAD DME & SUPPLIES NonFacility $ 128.70
A4640 00 REPL PAD W/ALTRN DME & SUPPLIES NonFacility $ 32.29
A4640 NU REPL PAD W/ALTRN DME & SUPPLIES NonFacility $ 32.29
A4640 RR REPL PAD W/ALTRN DME & SUPPLIES NonFacility $ 3.29
A4640 UE REPL PAD W/ALTRN DME & SUPPLIES NonFacility $ 22.88
A4642 00 INDIUM IN-111 SA INJECTABLES/OTHER DRUGS NonFacility $ 670.00
A4660 00 SPHYGMOMANOMETER DME & SUPPLIES NonFacility $ 6.82
A4663 00 BLOOD PRESSURE C DME & SUPPLIES NonFacility $ 12.96
A4670 00 AUTOMATIC BLOOD DME & SUPPLIES NonFacility $ 32.97
A4680 00 ACTIVATED CARBON DME & SUPPLIES NonFacility $ 33.65
A4690 00 DIALYZER ALL TYP DME & SUPPLIES NonFacility $ 332.66
A4714 00 TREATED H2O PERI DME & SUPPLIES NonFacility $ 36.83
A4750 00 BLD TUBING ART/V DME & SUPPLIES NonFacility $ 6.37
A4772 00 BLD GLU TEST STR DME & SUPPLIES NonFacility $ 13.42
A4773 00 OCCULT BLD TEST DME & SUPPLIES NonFacility $ 8.41
A4802 00 PROTAMINE SULFAT DME & SUPPLIES NonFacility $ 2.50
A4927 00 GLOVES NON-STERI DME & SUPPLIES NonFacility $ 2.05
A4929 00 TOURNIQUET FOR D DME & SUPPLIES NonFacility $ 0.23
A4930 00 GLOVES STERILE P DME & SUPPLIES NonFacility $ 0.46
A5051 00 OSTOMY POUCH CLO DME & SUPPLIES - OSTOMY NonFacility $ 1.06
A5052 00 OSTOMY POUCH CLO DME & SUPPLIES - OSTOMY NonFacility $ 0.76
A5053 00 OSTOMY POUCH CLO DME & SUPPLIES - OSTOMY NonFacility $ 0.89
A5054 00 OSTOMY POUCH CLO DME & SUPPLIES - OSTOMY NonFacility $ 0.91
A5055 00 STOMA CAP DME & SUPPLIES - OSTOMY NonFacility $ 0.73
A5056 00 OST POUCH DRAINA DME & SUPPLIES - OSTOMY NonFacility $ 2.56
A5057 00 OST POUCH DRAINA DME & SUPPLIES - OSTOMY NonFacility $ 5.26
A5061 00 OSTOMY POUCH DRA DME & SUPPLIES - OSTOMY NonFacility $ 1.79
A5062 00 OSTOMY POUCH DRA DME & SUPPLIES - OSTOMY NonFacility $ 1.13
A5063 00 OSTOMY POUCH DRA DME & SUPPLIES - OSTOMY NonFacility $ 1.38
A5071 00 OSTOMY POUCH URI DME & SUPPLIES - OSTOMY NonFacility $ 3.07
A5072 00 OSTOMY POUCH URI DME & SUPPLIES - OSTOMY NonFacility $ 1.79
A5073 00 OSTOMY POUCH URI DME & SUPPLIES - OSTOMY NonFacility $ 1.62
A5081 00 STOMA PLUG OR SE DME & SUPPLIES - OSTOMY NonFacility $ 1.69
A5082 00 CONTINENT DEVC;C DME & SUPPLIES - OSTOMY NonFacility $ 6.07
A5083 00 CONTINENT DEVICE DME & SUPPLIES - OSTOMY NonFacility $ 0.32
A5093 00 OSTOMY ACCESSORY DME & SUPPLIES - OSTOMY NonFacility $ 1.00
A5102 00 BEDSIDE DRN BOTT DME & SUPPLIES NonFacility $ 11.51
A5105 00 URINARY SUSPENSO DME & SUPPLIES NonFacility $ 20.79
A5112 00 URINARY DRAINAGE DME & SUPPLIES NonFacility $ 17.66
A5113 00 LEG STRAP; LATEX DME & SUPPLIES NonFacility $ 2.40
A5114 00 LEG STRAP; FOAM/ DME & SUPPLIES NonFacility $ 4.56
A5120 00 SKIN BARRIER WIP DME & SUPPLIES - OSTOMY NonFacility $ 0.13
A5121 00 SKN BARRIER; SOL DME & SUPPLIES - OSTOMY NonFacility $ 3.80
A5122 00 SKN BARRIER; SOL DME & SUPPLIES - OSTOMY NonFacility $ 6.55
A5126 00 ADHES/NON-ADHES; DME & SUPPLIES - OSTOMY NonFacility $ 0.67
A5131 00 APPLINC CLNR INC DME & SUPPLIES - OSTOMY NonFacility $ 8.09
A5200 00 PERQ CATH/TUBE A DME & SUPPLIES - OSTOMY NonFacility $ 5.77
A5500 00 DIABETICS ONLY,F DME & SUPPLIES NonFacility $ 32.05
A5501 00 DIABETICS ONLY,F DME & SUPPLIES NonFacility $ 96.14
A5503 00 DIABETICS ONLY,M DME & SUPPLIES NonFacility $ 14.26
A5504 00 DIABETICS ONLY,M DME & SUPPLIES NonFacility $ 14.26
A5505 00 DIABETICS ONLY,M DME & SUPPLIES NonFacility $ 14.26
A5506 00 DIABETICS ONLY,M DME & SUPPLIES NonFacility $ 14.26
A5507 00 DIABETICS ONLY,N DME & SUPPLIES NonFacility $ 14.87
A5512 00 FOR DIAB ONLY MX DME & SUPPLIES NonFacility $ 13.08
A5513 00 FOR DIAB ONLY MX DME & SUPPLIES NonFacility $ 19.52
A6010 00 COLLAGEN BASED W INJECTABLES/OTHER DRUGS NonFacility $ 6.36
A6011 00 COLLEGEN BASED W INJECTABLES/OTHER DRUGS NonFacility $ 0.80
A6021 00 COLLAGEN DRESSIN DME & SUPPLIES NonFacility $ 10.72
A6022 00 COLL DRSG STERL DME & SUPPLIES NonFacility $ 10.72
A6023 00 COLLAGEN DRESSIN DME & SUPPLIES NonFacility $ 97.06
A6024 00 COLLAGEN DRESSIN DME & SUPPLIES NonFacility $ 3.16
A6025 00 GEL SHEET FOR DE DME & SUPPLIES NonFacility $ 12.28
A6154 00 WOUND POUCH EACH DME & SUPPLIES NonFacility $ 7.33
A6196 00 ALGINATE OR OTHE DME & SUPPLIES NonFacility $ 3.75
A6197 00 ALGINATE OR OTHE DME & SUPPLIES NonFacility $ 8.38
A6199 00 ALGINATE OR OTHE DME & SUPPLIES NonFacility $ 2.70
A6203 00 COMPOSITE DRESSI DME & SUPPLIES NonFacility $ 1.71
A6204 00 COMPOSITE DRESSI DME & SUPPLIES NonFacility $ 3.18
A6206 00 CONTACT LAYER, S DME & SUPPLIES NonFacility $ 2.27
A6207 00 CONTACT LAYER, S DME & SUPPLIES NonFacility $ 3.74
A6209 00 FOAM DRESSING, W DME & SUPPLIES NonFacility $ 3.82
A6210 00 FOAM DRESSING, W DME & SUPPLIES NonFacility $ 10.16
A6211 00 FOAM DRESSING, W DME & SUPPLIES NonFacility $ 14.98
A6212 00 FOAM DRESSING, W DME & SUPPLIES NonFacility $ 4.95
A6213 00 FOAM DRESSING, W DME & SUPPLIES NonFacility $ 10.91
A6214 00 FOAM DRESSING, W DME & SUPPLIES NonFacility $ 5.25
A6216 00 GAUZE NON-IMPREG DME & SUPPLIES NonFacility $ 0.02
A6217 00 GAUZE NON-IMPREG DME & SUPPLIES NonFacility $ 0.23
A6218 00 GAUZE NON-IMPREG DME & SUPPLIES NonFacility $ 0.23
A6219 00 GAUZE, NON-IMPRE DME & SUPPLIES NonFacility $ 0.49
A6220 00 GAUZE, NON-IMPRE DME & SUPPLIES NonFacility $ 1.31
A6222 00 GAUZE, IMPREGNAT DME & SUPPLIES NonFacility $ 1.09
A6223 00 GAUZE, IMPREGNAT DME & SUPPLIES NonFacility $ 1.24
A6224 00 GAUZE, IMPREGNAT DME & SUPPLIES NonFacility $ 1.84
A6228 00 GAUZE, IMPREGNAT DME & SUPPLIES NonFacility $ 0.91
A6229 00 GAUZE, IMPREGNAT DME & SUPPLIES NonFacility $ 1.84
A6230 00 GAUZE, IMPREGNAT DME & SUPPLIES NonFacility $ 1.59
A6231 00 GAUZE, IMPREGNAT DME & SUPPLIES NonFacility $ 2.39
A6232 00 GAUZE, IMPREGNAT DME & SUPPLIES NonFacility $ 3.51
A6233 00 GAUZE, IMPREGNAT DME & SUPPLIES NonFacility $ 9.79
A6234 00 HYDROCOLLOID DRE DME & SUPPLIES NonFacility $ 3.34
A6235 00 HYDROCOLLOID DRE DME & SUPPLIES NonFacility $ 8.58
A6236 00 HYDROCOLLOID DRE DME & SUPPLIES NonFacility $ 13.90
A6237 00 HYDROCOLLOID DRE DME & SUPPLIES NonFacility $ 4.03
A6238 00 HYDROCOLLOID DRE DME & SUPPLIES NonFacility $ 11.62
A6240 00 HYDROCOLLOID DRE DME & SUPPLIES NonFacility $ 6.24
A6241 00 HYDROCOLLOID DRE DME & SUPPLIES NonFacility $ 1.31
A6242 00 HYDROGEL DRESSIN DME & SUPPLIES NonFacility $ 3.10
A6243 00 HYDROGEL DRESSIN DME & SUPPLIES NonFacility $ 6.28
A6244 00 HYDROGEL DRESSIN DME & SUPPLIES NonFacility $ 20.03
A6245 00 HYDROGEL DRESSIN DME & SUPPLIES NonFacility $ 3.71
A6246 00 HYDROGEL DRESSIN DME & SUPPLIES NonFacility $ 5.06
A6247 00 HYDROGEL DRESSIN DME & SUPPLIES NonFacility $ 12.13
A6248 00 HYDROGEL DRESSIN DME & SUPPLIES NonFacility $ 8.28
A6251 00 SPECIALTY ABSORP DME & SUPPLIES NonFacility $ 1.01
A6252 00 SPECIALTY ABSORP DME & SUPPLIES NonFacility $ 1.66
A6253 00 SPECIALTY ABSORP DME & SUPPLIES NonFacility $ 3.23
A6254 00 SPECIALTY ABSORP DME & SUPPLIES NonFacility $ 0.62
A6255 00 SPECIALTY ABSORP DME & SUPPLIES NonFacility $ 1.55
A6257 00 TRANSPARENT FILM DME & SUPPLIES NonFacility $ 0.78
A6258 00 TRANSPARENT FILM DME & SUPPLIES NonFacility $ 2.20
A6259 00 TRANSPARENT FILM DME & SUPPLIES NonFacility $ 5.58
A6260 00 WOUND CLEANSERS, DME & SUPPLIES NonFacility $ 0.46
A6261 00 WOUND FILLER GEL DME & SUPPLIES NonFacility $ 2.05
A6262 00 WOUND FILLER DRY DME & SUPPLIES NonFacility $ 0.46
A6266 00 GAUZE, IMPREGNAT DME & SUPPLIES NonFacility $ 0.98
A6402 00 GAUZ NON-IMPREG DME & SUPPLIES NonFacility $ 0.06
A6403 00 GAUZ NON-IMPREG DME & SUPPLIES NonFacility $ 0.22
A6404 00 GAUZ NON-IMPREG DME & SUPPLIES NonFacility $ 0.23
A6407 00 PACKING STRIPS, DME & SUPPLIES NonFacility $ 0.96
A6410 00 EYE PAD STERILE DME & SUPPLIES NonFacility $ 0.20
A6411 00 EYE PAD NON-STER DME & SUPPLIES NonFacility $ 0.23
A6412 00 EYE PATCH OCCLUS DME & SUPPLIES NonFacility $ 0.23
A6441 00 PADD BANDGE NON- DME & SUPPLIES NonFacility $ 0.34
A6442 00 CONFORMING BANDG DME & SUPPLIES NonFacility $ 0.08
A6443 00 CONFORMING BANDG DME & SUPPLIES NonFacility $ 0.15
A6444 00 CONFORMING BANDG DME & SUPPLIES NonFacility $ 0.29
A6445 00 CONFORMING BANDG DME & SUPPLIES NonFacility $ 0.16
A6446 00 CONFORMING BANDG DME & SUPPLIES NonFacility $ 0.21
A6447 00 CONFORMING BANDG DME & SUPPLIES NonFacility $ 0.34
A6448 00 LT COMPRS BANDGE DME & SUPPLIES NonFacility $ 0.59
A6449 00 LT COMPRS BANDGE DME & SUPPLIES NonFacility $ 0.89
A6450 00 LT COMPRS BANDGE DME & SUPPLIES NonFacility $ 0.99
A6451 00 MOD COMPRS BANDG DME & SUPPLIES NonFacility $ 0.99
A6452 00 HI COMPRS BANDGE DME & SUPPLIES NonFacility $ 3.01
A6453 00 SLF-ADHERENT BAN DME & SUPPLIES NonFacility $ 0.31
A6454 00 SLF-ADHERENT BAN DME & SUPPLIES NonFacility $ 0.39
A6455 00 SLF-ADHERENT BAN DME & SUPPLIES NonFacility $ 0.71
A6456 00 ZINC PASTE IMPRE DME & SUPPLIES NonFacility $ 0.65
A6457 00 TUBULAR DRSG W/W DME & SUPPLIES NonFacility $ 0.58
A6531 00 GRADIENT COMPRES DME & SUPPLIES NonFacility $ 22.07
A6532 00 GRADIENT COMPRES DME & SUPPLIES NonFacility $ 31.09
A6545 00 GRADIENT COMPRES DME & SUPPLIES NonFacility $ 45.62
A6550 00 WND CARE SET NEG DME & SUPPLIES NonFacility $ 13.99
A7000 00 CANISTER DISPBL DME & SUPPLIES NonFacility $ 4.87
A7000 NU CANISTER DISPBL DME & SUPPLIES NonFacility $ 4.87
A7001 00 CANISTR NONDISPB DME & SUPPLIES NonFacility $ 16.87
A7001 NU CANISTR NONDISPB DME & SUPPLIES NonFacility $ 16.87
A7001 RR CANISTR NONDISPB DME & SUPPLIES NonFacility $ 2.05
A7001 UE CANISTR NONDISPB DME & SUPPLIES NonFacility $ 14.78
A7002 00 TUBING USED WITH DME & SUPPLIES NonFacility $ 1.96
A7002 NU TUBING USED WITH DME & SUPPLIES NonFacility $ 1.96
A7002 RR TUBING USED WITH DME & SUPPLIES NonFacility $ 0.23
A7002 UE TUBING USED WITH DME & SUPPLIES NonFacility $ 1.82
A7003 00 ADMN SET SM VOL DME & SUPPLIES NonFacility $ 1.40
A7003 NU ADMN SET SM VOL DME & SUPPLIES NonFacility $ 1.40
A7004 00 SM VOL NONFILTR DME & SUPPLIES NonFacility $ 0.92
A7004 NU SM VOL NONFILTR DME & SUPPLIES NonFacility $ 0.92
A7005 00 ADMN SET SM VOL DME & SUPPLIES NonFacility $ 15.73
A7005 NU ADMN SET SM VOL DME & SUPPLIES NonFacility $ 15.73
A7006 00 ADMN SET W/SM VO DME & SUPPLIES NonFacility $ 4.87
A7006 NU ADMN SET W/SM VO DME & SUPPLIES NonFacility $ 4.87
A7007 00 LG VOL NEBULIZR DME & SUPPLIES NonFacility $ 2.35
A7007 NU LG VOL NEBULIZR DME & SUPPLIES NonFacility $ 2.35
A7008 00 LG VOL NEBULIZR DME & SUPPLIES NonFacility $ 5.61
A7008 NU LG VOL NEBULIZR DME & SUPPLIES NonFacility $ 5.61
A7008 RR LG VOL NEBULIZR DME & SUPPLIES NonFacility $ 0.68
A7008 UE LG VOL NEBULIZR DME & SUPPLIES NonFacility $ 5.00
A7009 00 RESRVOR BOTTLE L DME & SUPPLIES NonFacility $ 21.44
A7009 NU RESRVOR BOTTLE L DME & SUPPLIES NonFacility $ 21.44
A7009 RR RESRVOR BOTTLE L DME & SUPPLIES NonFacility $ 2.50
A7009 UE RESRVOR BOTTLE L DME & SUPPLIES NonFacility $ 18.87
A7010 00 CORUG TUBE DISPB DME & SUPPLIES NonFacility $ 12.03
A7010 NU CORUG TUBE DISPB DME & SUPPLIES NonFacility $ 12.03
A7012 00 WATR CLCT DEVC W DME & SUPPLIES NonFacility $ 1.93
A7012 NU WATR CLCT DEVC W DME & SUPPLIES NonFacility $ 1.93
A7013 00 FILTER DISPOSABL DME & SUPPLIES NonFacility $ 0.43
A7013 NU FILTER DISPOSABL DME & SUPPLIES NonFacility $ 0.43
A7014 00 FLTR NON-DISPBL DME & SUPPLIES NonFacility $ 2.29
A7014 NU FLTR NON-DISPBL DME & SUPPLIES NonFacility $ 2.29
A7015 00 AEROSOL MASK USE DME & SUPPLIES NonFacility $ 0.96
A7015 NU AEROSOL MASK USE DME & SUPPLIES NonFacility $ 0.96
A7016 00 DOME&MOUTHPECE W DME & SUPPLIES NonFacility $ 3.70
A7016 NU DOME&MOUTHPECE W DME & SUPPLIES NonFacility $ 3.70
A7016 RR DOME&MOUTHPECE W DME & SUPPLIES NonFacility $ 0.46
A7016 UE DOME&MOUTHPECE W DME & SUPPLIES NonFacility $ 3.19
A7017 00 NEBULIZR DURABL DME & SUPPLIES NonFacility $ 68.36
A7017 NU NEBULIZR DURABL DME & SUPPLIES NonFacility $ 68.36
A7017 RR NEBULIZR DURABL DME & SUPPLIES NonFacility $ 6.83
A7017 UE NEBULIZR DURABL DME & SUPPLIES NonFacility $ 51.26
A7018 00 WATR DIST USE W/ DME & SUPPLIES NonFacility $ 0.19
A7020 00 INTERFACE COUGH DME & SUPPLIES NonFacility $ 7.75
A7020 NU INTERFACE COUGH DME & SUPPLIES NonFacility $ 7.75
A7020 RR INTERFACE COUGH DME & SUPPLIES NonFacility $ 0.91
A7020 UE INTERFACE COUGH DME & SUPPLIES NonFacility $ 6.59
A7025 00 HI FREQ CHST WAL DME & SUPPLIES NonFacility $ 259.67
A7025 NU HI FREQ CHST WAL DME & SUPPLIES NonFacility $ 259.67
A7025 RR HI FREQ CHST WAL DME & SUPPLIES NonFacility $ 24.26
A7025 UE HI FREQ CHST WAL DME & SUPPLIES NonFacility $ 194.64
A7026 00 HI FREQ CHST WAL DME & SUPPLIES NonFacility $ 14.66
A7026 NU HI FREQ CHST WAL DME & SUPPLIES NonFacility $ 14.66
A7026 RR HI FREQ CHST WAL DME & SUPPLIES NonFacility $ 1.82
A7026 UE HI FREQ CHST WAL DME & SUPPLIES NonFacility $ 12.96
A7027 00 COMB ORAL/NASAL DME & SUPPLIES NonFacility $ 95.12
A7027 NU COMB ORAL/NASAL DME & SUPPLIES NonFacility $ 95.12
A7028 00 ORAL CUSHION COM DME & SUPPLIES NonFacility $ 25.27
A7028 NU ORAL CUSHION COM DME & SUPPLIES NonFacility $ 25.27
A7029 00 NASAL PILLOWS CO DME & SUPPLIES NonFacility $ 10.32
A7029 NU NASAL PILLOWS CO DME & SUPPLIES NonFacility $ 10.32
A7030 00 FULL FACE MASK U DME & SUPPLIES NonFacility $ 96.20
A7030 NU FULL FACE MASK U DME & SUPPLIES NonFacility $ 96.20
A7031 00 FACE MASK INTERF DME & SUPPLIES NonFacility $ 35.58
A7031 NU FACE MASK INTERF DME & SUPPLIES NonFacility $ 35.58
A7032 00 CUSHN NASAL MASK DME & SUPPLIES NonFacility $ 20.67
A7032 NU CUSHN NASAL MASK DME & SUPPLIES NonFacility $ 20.67
A7033 00 PILLW NASL CANNU DME & SUPPLIES NonFacility $ 14.49
A7033 NU PILLW NASL CANNU DME & SUPPLIES NonFacility $ 14.49
A7034 00 NASL INTRFCE POS DME & SUPPLIES NonFacility $ 59.99
A7034 NU NASL INTRFCE POS DME & SUPPLIES NonFacility $ 59.99
A7035 00 HEADGEAR USED W/ DME & SUPPLIES NonFacility $ 20.27
A7035 NU HEADGEAR USED W/ DME & SUPPLIES NonFacility $ 20.27
A7036 00 CHINSTRAP USED W DME & SUPPLIES NonFacility $ 9.28
A7036 NU CHINSTRAP USED W DME & SUPPLIES NonFacility $ 9.28
A7037 00 TUBING USED WITH DME & SUPPLIES NonFacility $ 20.92
A7037 NU TUBING USED WITH DME & SUPPLIES NonFacility $ 20.92
A7038 00 FILTER DISPBL US DME & SUPPLIES NonFacility $ 2.75
A7038 NU FILTER DISPBL US DME & SUPPLIES NonFacility $ 2.75
A7039 00 FILTER NON DISPB DME & SUPPLIES NonFacility $ 7.82
A7039 NU FILTER NON DISPB DME & SUPPLIES NonFacility $ 7.82
A7040 00 ONE WAY CHEST DR DME & SUPPLIES NonFacility $ 20.25
A7041 00 WATER SEAL DRAIN DME & SUPPLIES NonFacility $ 38.05
A7044 00 ORAL INTERFACE U DME & SUPPLIES NonFacility $ 61.66
A7044 NU ORAL INTERFACE U DME & SUPPLIES NonFacility $ 61.66
A7045 00 EXHALATION PORT DME & SUPPLIES NonFacility $ 9.93
A7045 NU EXHALATION PORT DME & SUPPLIES NonFacility $ 9.93
A7045 RR EXHALATION PORT DME & SUPPLIES NonFacility $ 1.00
A7045 UE EXHALATION PORT DME & SUPPLIES NonFacility $ 7.45
A7046 00 WATR CHAMB HUMDI DME & SUPPLIES NonFacility $ 9.95
A7046 NU WATR CHAMB HUMDI DME & SUPPLIES NonFacility $ 9.95
A7047 00 ORAL INTERFACE U DME & SUPPLIES NonFacility $ 67.43
A7047 NU ORAL INTERFACE U DME & SUPPLIES NonFacility $ 67.43
A7047 RR ORAL INTERFACE U DME & SUPPLIES NonFacility $ 7.28
A7047 UE ORAL INTERFACE U DME & SUPPLIES NonFacility $ 54.12
A7048 00 VACUUM DRAINAGE DME & SUPPLIES NonFacility $ 25.18
A7501 00 TRACHEOSTOMA VAL DME & SUPPLIES NonFacility $ 53.57
A7502 00 REPL DIAPH/FCEPL DME & SUPPLIES NonFacility $ 25.45
A7503 00 FLTR HOLDER/CAP DME & SUPPLIES NonFacility $ 5.78
A7504 00 FLTR USE TRACHEO DME & SUPPLIES NonFacility $ 0.34
A7505 00 HOUS REUSABL W/O DME & SUPPLIES NonFacility $ 2.39
A7506 00 ADHES DISC EXCHG DME & SUPPLIES NonFacility $ 0.17
A7507 00 FLTR HLDR&INTGR DME & SUPPLIES NonFacility $ 1.27
A7508 00 HOUS&INTGR ADHES DME & SUPPLIES NonFacility $ 1.46
A7509 00 FLTR HLDR&INTGR DME & SUPPLIES NonFacility $ 0.72
A7520 00 TRACHEOST/LARYNG DME & SUPPLIES NonFacility $ 24.22
A7521 00 TRACHEOST/LARYNG DME & SUPPLIES NonFacility $ 23.99
A7522 00 TRACHEOST/LARYNG DME & SUPPLIES NonFacility $ 23.03
A7524 00 TRACHEOSTOMA STE DME & SUPPLIES NonFacility $ 39.47
A7525 00 TRACHEOSTOMY MAS DME & SUPPLIES NonFacility $ 1.06
A7526 00 TRACHEOSTOMY TUB DME & SUPPLIES NonFacility $ 1.72
A7527 00 TRACHEOSTOMY/LAR DME & SUPPLIES NonFacility $ 1.82
A8000 00 HELMET PROTECTVE DME & SUPPLIES - ORTHOTICS NonFacility $ 117.32
A8000 NU HELMET PROTECTVE DME & SUPPLIES - ORTHOTICS NonFacility $ 117.32
A8000 RR HELMET PROTECTVE DME & SUPPLIES - ORTHOTICS NonFacility $ 11.73
A8000 UE HELMET PROTECTVE DME & SUPPLIES - ORTHOTICS NonFacility $ 88.00
A8001 00 HELMET PROTECTVE DME & SUPPLIES - ORTHOTICS NonFacility $ 117.32
A8001 NU HELMET PROTECTVE DME & SUPPLIES - ORTHOTICS NonFacility $ 117.32
A8001 RR HELMET PROTECTVE DME & SUPPLIES - ORTHOTICS NonFacility $ 11.73
A8001 UE HELMET PROTECTVE DME & SUPPLIES - ORTHOTICS NonFacility $ 88.00
A9155 00 ARTFICIAL SALIVA INJECTABLES/OTHER DRUGS NonFacility $ 2.00
A9500 00 TECHNETIUM TC-99 INJECTABLES/OTHER DRUGS NonFacility $ 48.68
A9502 00 TECHNETIUM TC-99 INJECTABLES/OTHER DRUGS NonFacility $ 44.44
A9503 00 TECHNETIUM TC-99 INJECTABLES/OTHER DRUGS NonFacility $ 5.93
A9504 00 TECHNETIUM TC-99 INJECTABLES/OTHER DRUGS NonFacility $ 200.00
A9505 00 THALLIUM TL-201 INJECTABLES/OTHER DRUGS NonFacility $ 63.20
A9507 00 INDIUM IN-111 CA INJECTABLES/OTHER DRUGS NonFacility $ 2004.58
A9508 00 IODINE I-131 IOB INJECTABLES/OTHER DRUGS NonFacility $ 354.78
A9509 00 IODINE I-123 SOD INJECTABLES/OTHER DRUGS NonFacility $ 868.08
A9510 00 TECHNETIUM TC-99 INJECTABLES/OTHER DRUGS NonFacility $ 31.92
A9512 00 TECHNETIUM TC-99 INJECTABLES/OTHER DRUGS NonFacility $ 5.41
A9515 00 CHOLINE C-11 DX INJECTABLES/OTHER DRUGS NonFacility $ 2280.00
A9516 00 IODINE I-123 SOD INJECTABLES/OTHER DRUGS NonFacility $ 86.81
A9517 00 IODINE I-131 SOD INJECTABLES/OTHER DRUGS NonFacility $ 16.28
A9520 00 TECHNETIUM TC-99 INJECTABLES/OTHER DRUGS NonFacility $ 214.23
A9521 00 TECHNETIUM TC-99 INJECTABLES/OTHER DRUGS NonFacility $ 663.92
A9524 00 IODINE I-131 IOD INJECTABLES/OTHER DRUGS NonFacility $ 36.10
A9526 00 NITROGEN N-13 AM DME & SUPPLIES NonFacility $ 85.80
A9527 00 IODINE I-125 SOD INJECTABLES/OTHER DRUGS NonFacility $ 82.38
A9528 00 IODINE I-131 SOD DME & SUPPLIES NonFacility $ 74.35
A9529 00 IODINE I-131 SOD DME & SUPPLIES NonFacility $ 65.40
A9530 00 IODINE I-131 SOD DME & SUPPLIES NonFacility $ 5.80
A9531 00 IODINE I-131 SOD DME & SUPPLIES NonFacility $ 5.75
A9532 00 IODINE I-125 SER DME & SUPPLIES NonFacility $ 160.99
A9536 00 TECHNETIUM TC-99 INJECTABLES/OTHER DRUGS NonFacility $ 560.00
A9537 00 TECHNETIUM TC-99 INJECTABLES/OTHER DRUGS NonFacility $ 25.22
A9538 00 TECHNETIUM TC-99 INJECTABLES/OTHER DRUGS NonFacility $ 18.24
A9539 00 TECHNETIUM TC-99 INJECTABLES/OTHER DRUGS NonFacility $ 15.04
A9540 00 TECHNETIUM TC-99 INJECTABLES/OTHER DRUGS NonFacility $ 13.68
A9541 00 TECHNETIUM TC-99 INJECTABLES/OTHER DRUGS NonFacility $ 24.38
A9542 00 INDIUM IN-111 IB INJECTABLES/OTHER DRUGS NonFacility $ 1680.00
A9543 00 YTTRIUM Y-90 IBR INJECTABLES/OTHER DRUGS NonFacility $ 21526.37
A9546 00 COBALT CO-57/58 INJECTABLES/OTHER DRUGS NonFacility $ 94.33
A9547 00 INDIUM IN-111 OX INJECTABLES/OTHER DRUGS NonFacility $ 815.38
A9548 00 INDIUM IN-111 PE INJECTABLES/OTHER DRUGS NonFacility $ 188.42
A9551 00 TECHNETIUM TC-99 INJECTABLES/OTHER DRUGS NonFacility $ 287.72
A9552 00 FLUORODEOXYGLUCO INJECTABLES/OTHER DRUGS NonFacility $ 180.00
A9553 00 CHROMIUM CR-51 S INJECTABLES/OTHER DRUGS NonFacility $ 270.72
A9554 00 IODINE I-125 SOD INJECTABLES/OTHER DRUGS NonFacility $ 15.96
A9555 00 RUBIDIUM RB-82 D INJECTABLES/OTHER DRUGS NonFacility $ 203.02
A9556 00 GALLIUM GA-67 CI INJECTABLES/OTHER DRUGS NonFacility $ 49.82
A9557 00 TECHNETIUM TC-99 INJECTABLES/OTHER DRUGS NonFacility $ 169.68
A9558 00 XENON XE-133 GAS INJECTABLES/OTHER DRUGS NonFacility $ 17.39
A9559 00 COBALT CO-57 CYA INJECTABLES/OTHER DRUGS NonFacility $ 33.40
A9560 00 TECHNETIUM TC-99 INJECTABLES/OTHER DRUGS NonFacility $ 42.59
A9561 00 TECHNETIUM TC-99 INJECTABLES/OTHER DRUGS NonFacility $ 20.06
A9562 00 TECHNETIUM TC-99 INJECTABLES/OTHER DRUGS NonFacility $ 353.30
A9563 00 SODIUM PHOSPHATE INJECTABLES/OTHER DRUGS NonFacility $ 139.02
A9564 00 CHROMIC PHOSHATE INJECTABLES/OTHER DRUGS NonFacility $ 132.45
A9567 00 TECHNETIUM TC-99 INJECTABLES/OTHER DRUGS NonFacility $ 8.78
A9568 00 TECHTM TC-99M AR INJECTABLES/OTHER DRUGS NonFacility $ 494.00
A9569 00 TECHNETIUM TC-99 INJECTABLES/OTHER DRUGS NonFacility $ 663.92
A9570 00 INDIUM IN-111 AU INJECTABLES/OTHER DRUGS NonFacility $ 1630.77
A9571 00 INDIUM IN-111 AU INJECTABLES/OTHER DRUGS NonFacility $ 1630.77
A9572 00 INDIUM IN-111 PE INJECTABLES/OTHER DRUGS NonFacility $ 2724.48
A9575 00 INJECTION GADOTE INJECTABLES/OTHER DRUGS NonFacility $ 0.09
A9576 00 INJECTION GADOTE INJECTABLES/OTHER DRUGS NonFacility $ 0.66
A9577 00 INJ GADOBENATE D INJECTABLES/OTHER DRUGS NonFacility $ 0.82
A9578 00 INJ GADOBENATE D INJECTABLES/OTHER DRUGS NonFacility $ 0.79
A9579 00 INJECTION GADOLI INJECTABLES/OTHER DRUGS NonFacility $ 0.82
A9580 00 SODIUM FLUORIDE INJECTABLES/OTHER DRUGS NonFacility $ 109.73
A9581 00 INJECTION GADOXE INJECTABLES/OTHER DRUGS NonFacility $ 5.94
A9582 00 IODINE I-123 IOB INJECTABLES/OTHER DRUGS NonFacility $ 2692.30
A9583 00 INJECTION GADOFO INJECTABLES/OTHER DRUGS NonFacility $ 8.40
A9584 00 IODINE I-123 IOF INJECTABLES/OTHER DRUGS NonFacility $ 1125.41
A9585 00 INJECTION GADOBU INJECTABLES/OTHER DRUGS NonFacility $ 0.15
A9586 00 FLORBETAPIR F18 INJECTABLES/OTHER DRUGS NonFacility $ 1302.98
A9587 00 GALLIUM GA-68 DO INJECTABLES/OTHER DRUGS NonFacility $ 28.71
A9588 00 FLUCICLOVINE F-1 INJECTABLES/OTHER DRUGS NonFacility $ 167.58
A9600 00 STRONTIUM SR-89 INJECTABLES/OTHER DRUGS NonFacility $ 2200.10
A9604 00 SAMARIUM SM-153 INJECTABLES/OTHER DRUGS NonFacility $ 6308.40
A9606 00 RADIUM RA-223 DI INJECTABLES/OTHER DRUGS NonFacility $ 63.29
L0112 00 CRANIL CERV ORTH DME & SUPPLIES - ORTHOTICS NonFacility $ 905.92
L0113 00 CRANIAL CERVICAL DME & SUPPLIES - ORTHOTICS NonFacility $ 208.09
L0120 00 CERVICAL FLEXIBL DME & SUPPLIES - ORTHOTICS NonFacility $ 17.97
L0130 00 CERV FLXBL THRMO DME & SUPPLIES - ORTHOTICS NonFacility $ 110.53
L0140 00 CERVICAL SEMI-RI DME & SUPPLIES - ORTHOTICS NonFacility $ 43.37
L0150 00 CERV SEMI-RIGD A DME & SUPPLIES - ORTHOTICS NonFacility $ 73.22
L0160 00 CERVICAL SEMI-RI DME & SUPPLIES - ORTHOTICS NonFacility $ 106.11
L0170 00 CERV COLLAR MOLD DME & SUPPLIES - ORTHOTICS NonFacility $ 436.91
L0172 00 CERVICAL COLLAR DME & SUPPLIES - ORTHOTICS NonFacility $ 86.01
L0174 00 CERVICAL COLLAR DME & SUPPLIES - ORTHOTICS NonFacility $ 186.11
L0180 00 CERV MX POST COL DME & SUPPLIES - ORTHOTICS NonFacility $ 251.03
L0190 00 CERV MX POST COL DME & SUPPLIES - ORTHOTICS NonFacility $ 335.60
L0200 00 CERV COLLR ADJ C DME & SUPPLIES - ORTHOTICS NonFacility $ 349.86
L0220 00 THORACIC RIB BEL DME & SUPPLIES - ORTHOTICS NonFacility $ 82.97
L0450 00 TLSO FLEXIBLE TR DME & SUPPLIES - ORTHOTICS NonFacility $ 117.75
L0452 00 TLSO FLEXIBLE TR DME & SUPPLIES - ORTHOTICS NonFacility $ 255.97
L0454 00 TLSO FLEXIBLE SC DME & SUPPLIES - ORTHOTICS NonFacility $ 224.49
L0455 00 TLSO FLEXIBLE SC DME & SUPPLIES - ORTHOTICS NonFacility $ 262.95
L0456 00 TLSO FLEXIBLE SC DME & SUPPLIES - ORTHOTICS NonFacility $ 643.75
L0457 00 TLSO FLX SC JUNC DME & SUPPLIES - ORTHOTICS NonFacility $ 754.07
L0458 00 TLSO TRIPLANAR 2 DME & SUPPLIES - ORTHOTICS NonFacility $ 577.25
L0460 00 TLSO TRIPLANAR 2 DME & SUPPLIES - ORTHOTICS NonFacility $ 649.74
L0462 00 TLSO TRIPLANAR 3 DME & SUPPLIES - ORTHOTICS NonFacility $ 808.16
L0464 00 TLSO TRIPLANAR 4 DME & SUPPLIES - ORTHOTICS NonFacility $ 962.11
L0466 00 TLSO SAGITTAL CO DME & SUPPLIES - ORTHOTICS NonFacility $ 253.12
L0467 00 TLSO SAGITTAL CO DME & SUPPLIES - ORTHOTICS NonFacility $ 296.49
L0468 00 TLSO SAGITTAL-CO DME & SUPPLIES - ORTHOTICS NonFacility $ 310.55
L0469 00 TLSO SAGITTAL-CO DME & SUPPLIES - ORTHOTICS NonFacility $ 363.75
L0470 00 TLSO TRIPLANAR P DME & SUPPLIES - ORTHOTICS NonFacility $ 431.93
L0472 00 TLSO TRIPLANAR H DME & SUPPLIES - ORTHOTICS NonFacility $ 273.93
L0480 00 TLSO TRIPLANAR 1 DME & SUPPLIES - ORTHOTICS NonFacility $ 964.69
L0482 00 TLSO TRIPLANAR 1 DME & SUPPLIES - ORTHOTICS NonFacility $ 1050.58
L0484 00 TLSO TRIPLANAR 2 DME & SUPPLIES - ORTHOTICS NonFacility $ 1203.98
L0486 00 TLSO TRIPLANAR 2 DME & SUPPLIES - ORTHOTICS NonFacility $ 1277.35
L0488 00 TLSO TRIPLANAR 1 DME & SUPPLIES - ORTHOTICS NonFacility $ 649.74
L0490 00 TLSO SAGIT-CORON DME & SUPPLIES - ORTHOTICS NonFacility $ 183.10
L0491 00 TLSO TWO RIGID P DME & SUPPLIES - ORTHOTICS NonFacility $ 497.10
L0492 00 TLSO THREE RIGID DME & SUPPLIES - ORTHOTICS NonFacility $ 322.78
L0621 00 SACROILIAC ORTHO DME & SUPPLIES - ORTHOTICS NonFacility $ 62.47
L0622 00 SACROILIAC ORTHO DME & SUPPLIES - ORTHOTICS NonFacility $ 175.02
L0625 00 LUMBAR ORTHOSIS DME & SUPPLIES - ORTHOTICS NonFacility $ 35.66
L0626 00 LUMB ORTHOSIS SA DME & SUPPLIES - ORTHOTICS NonFacility $ 50.46
L0627 00 LUMB ORTHOSIS SA DME & SUPPLIES - ORTHOTICS NonFacility $ 266.12
L0628 00 LUMBAR-SCARAL OR DME & SUPPLIES - ORTHOTICS NonFacility $ 54.32
L0630 00 LUMB-SACRAL ORTH DME & SUPPLIES - ORTHOTICS NonFacility $ 104.85
L0631 00 LUMB-SACRAL ORTH DME & SUPPLIES - ORTHOTICS NonFacility $ 664.62
L0633 00 LUMB-SAC ORTHOS DME & SUPPLIES - ORTHOTICS NonFacility $ 185.64
L0635 00 LSO SAGITTAL-COR DME & SUPPLIES - ORTHOTICS NonFacility $ 648.49
L0636 00 LSO SAGITTAL-COR DME & SUPPLIES - ORTHOTICS NonFacility $ 959.99
L0637 00 LUMB-SACRAL ORTH DME & SUPPLIES - ORTHOTICS NonFacility $ 759.72
L0638 00 LUMB-SACRAL ORTH DME & SUPPLIES - ORTHOTICS NonFacility $ 853.69
L0639 00 LUMB-SAC ORTHOS DME & SUPPLIES - ORTHOTICS NonFacility $ 759.72
L0640 00 LSO SAGITTAL-COR DME & SUPPLIES - ORTHOTICS NonFacility $ 677.29
L0641 00 LUMB ORTHOS SAGI DME & SUPPLIES - ORTHOTICS NonFacility $ 59.11
L0642 00 LUMB ORTHOS SAGI DME & SUPPLIES - ORTHOTICS NonFacility $ 311.72
L0643 00 LSO SAGITTAL CON DME & SUPPLIES - ORTHOTICS NonFacility $ 122.81
L0648 00 LSO SAGITTAL CON DME & SUPPLIES - ORTHOTICS NonFacility $ 778.52
L0649 00 LSO SAGITTAL-COR DME & SUPPLIES - ORTHOTICS NonFacility $ 217.47
L0650 00 LSO SAGITTAL-COR DME & SUPPLIES - ORTHOTICS NonFacility $ 889.90
L0651 00 LSO SAGITTAL-COR DME & SUPPLIES - ORTHOTICS NonFacility $ 889.90
L0700 00 CTLSO ANT-POST-L DME & SUPPLIES - ORTHOTICS NonFacility $ 1369.67
L0710 00 CTLSO-MOLD PT-IN DME & SUPPLIES - ORTHOTICS NonFacility $ 1414.92
L0810 00 HALO PROC CERV H DME & SUPPLIES - ORTHOTICS NonFacility $ 1747.50
L0820 00 HALO PROC CERV H DME & SUPPLIES - ORTHOTICS NonFacility $ 1463.41
L0830 00 HALO PROC CERV H DME & SUPPLIES - ORTHOTICS NonFacility $ 2124.43
L0859 00 ADD HALO PROC MR DME & SUPPLIES - ORTHOTICS NonFacility $ 825.33
L0861 00 ADD HALO PROC RE DME & SUPPLIES - ORTHOTICS NonFacility $ 139.51
L0970 00 TLSO CORSET FRON DME & SUPPLIES - ORTHOTICS NonFacility $ 77.43
L0972 00 LSO CORSET FRONT DME & SUPPLIES - ORTHOTICS NonFacility $ 69.72
L0974 00 TLSO FULL CORSET DME & SUPPLIES - ORTHOTICS NonFacility $ 121.29
L0976 00 LSO FULL CORSET DME & SUPPLIES - ORTHOTICS NonFacility $ 108.32
L0978 00 AXILLARY CRUTCH DME & SUPPLIES - ORTHOTICS NonFacility $ 130.41
L0980 00 PERONEAL STRAPS DME & SUPPLIES - ORTHOTICS NonFacility $ 11.83
L0982 00 STOCKING SUPPORT DME & SUPPLIES - ORTHOTICS NonFacility $ 11.03
L0984 00 PROTECTIVE BODY DME & SUPPLIES - ORTHOTICS NonFacility $ 40.55
L1000 00 CTLSO INCL FURNI DME & SUPPLIES - ORTHOTICS NonFacility $ 1375.44
L1005 00 TENSION BASED SC DME & SUPPLIES - ORTHOTICS NonFacility $ 2071.65
L1010 00 ADD CTLSO/SCOLIO DME & SUPPLIES - ORTHOTICS NonFacility $ 45.47
L1020 00 ADD CTLSO/SCOLIO DME & SUPPLIES - ORTHOTICS NonFacility $ 58.55
L1025 00 ADD CTLSO/SCOLIO DME & SUPPLIES - ORTHOTICS NonFacility $ 84.48
L1030 00 ADD CTLSO/SCOLIO DME & SUPPLIES - ORTHOTICS NonFacility $ 43.10
L1040 00 ADD CTLSO/SCOLIO DME & SUPPLIES - ORTHOTICS NonFacility $ 52.86
L1050 00 ADD CTLSO/SCOLIO DME & SUPPLIES - ORTHOTICS NonFacility $ 56.40
L1060 00 ADD CTLSO/SCOLIO DME & SUPPLIES - ORTHOTICS NonFacility $ 64.79
L1070 00 ADD CTLSO/SCOLIO DME & SUPPLIES - ORTHOTICS NonFacility $ 60.96
L1080 00 ADD CTLSO/SCOLIO DME & SUPPLIES - ORTHOTICS NonFacility $ 37.49
L1085 00 ADD CTLSO/SCOLIO DME & SUPPLIES - ORTHOTICS NonFacility $ 104.28
L1090 00 ADD CTLSO/SCOLIO DME & SUPPLIES - ORTHOTICS NonFacility $ 62.10
L1100 00 ADD CTLSO/SCOLIO DME & SUPPLIES - ORTHOTICS NonFacility $ 107.74
L1110 00 ADD CTLSO/SCOLIO DME & SUPPLIES - ORTHOTICS NonFacility $ 173.03
L1120 00 ADD CTLSO SCOLIO DME & SUPPLIES - ORTHOTICS NonFacility $ 26.91
L1200 00 TLSO INCL FURNIS DME & SUPPLIES - ORTHOTICS NonFacility $ 1061.50
L1210 00 ADDITION TLSO LA DME & SUPPLIES - ORTHOTICS NonFacility $ 177.27
L1220 00 ADDITION TLSO AN DME & SUPPLIES - ORTHOTICS NonFacility $ 150.09
L1230 00 ADD TLSO MLWAKEE DME & SUPPLIES - ORTHOTICS NonFacility $ 385.12
L1240 00 ADDITION TLSO LU DME & SUPPLIES - ORTHOTICS NonFacility $ 52.61
L1250 00 ADDITION TO TLSO DME & SUPPLIES - ORTHOTICS NonFacility $ 48.94
L1260 00 ADD TLSO ANT THO DME & SUPPLIES - ORTHOTICS NonFacility $ 51.26
L1270 00 ADDITION TO TLSO DME & SUPPLIES - ORTHOTICS NonFacility $ 52.49
L1280 00 ADDITION TO TLSO DME & SUPPLIES - ORTHOTICS NonFacility $ 58.45
L1290 00 ADDITION TLSO LA DME & SUPPLIES - ORTHOTICS NonFacility $ 53.25
L1300 00 OTH SCOLIOS PROC DME & SUPPLIES - ORTHOTICS NonFacility $ 1131.69
L1310 00 OTH SCOLIOSIS PR DME & SUPPLIES - ORTHOTICS NonFacility $ 1164.51
L1600 00 HIP ORTHOSIS ABD DME & SUPPLIES - ORTHOTICS NonFacility $ 87.30
L1610 00 HIP ORTHOSIS ABD DME & SUPPLIES - ORTHOTICS NonFacility $ 29.75
L1620 00 HIP ORTHOSIS ABD DME & SUPPLIES - ORTHOTICS NonFacility $ 90.77
L1630 00 HO SEMI-FLX VAN DME & SUPPLIES - ORTHOTICS NonFacility $ 114.80
L1640 00 HO-STATIC THIGH DME & SUPPLIES - ORTHOTICS NonFacility $ 312.61
L1650 00 HO STATIC ADJUST DME & SUPPLIES - ORTHOTICS NonFacility $ 156.85
L1652 00 HIP ORTHOS BIL T DME & SUPPLIES - ORTHOTICS NonFacility $ 230.73
L1660 00 HO STATIC PLASTI DME & SUPPLIES - ORTHOTICS NonFacility $ 115.94
L1680 00 HO-DYNAMC PELV C DME & SUPPLIES - ORTHOTICS NonFacility $ 825.46
L1685 00 HO POSTOP HIP AB DME & SUPPLIES - ORTHOTICS NonFacility $ 805.85
L1686 00 HO POSTOP HIP AB DME & SUPPLIES - ORTHOTICS NonFacility $ 617.99
L1690 00 COMB BIL LUMBO-S DME & SUPPLIES - ORTHOTICS NonFacility $ 1251.63
L1700 00 LEGG PERTHES ORT DME & SUPPLIES - ORTHOTICS NonFacility $ 1034.59
L1710 00 LEGG PERTHES ORT DME & SUPPLIES - ORTHOTICS NonFacility $ 1211.09
L1720 00 LEGG PERTHES ORT DME & SUPPLIES - ORTHOTICS NonFacility $ 892.73
L1730 00 LEGG PERTHES ORT DME & SUPPLIES - ORTHOTICS NonFacility $ 766.76
L1755 00 LEGG PERTHES ORT DME & SUPPLIES - ORTHOTICS NonFacility $ 1072.62
L1810 00 KNEE ORTHOSIS EL DME & SUPPLIES - ORTHOTICS NonFacility $ 66.72
L1812 00 KNEE ORTHOSIS EL DME & SUPPLIES - ORTHOTICS NonFacility $ 78.16
L1820 00 KO ELAST W/CONDY DME & SUPPLIES - ORTHOTICS NonFacility $ 87.84
L1830 00 KNEE ORTHOSIS IM DME & SUPPLIES - ORTHOTICS NonFacility $ 59.27
L1831 00 KNEE ORTHOF LOCK DME & SUPPLIES - ORTHOTICS NonFacility $ 190.50
L1832 00 KNEE ORTHOSIS IM DME & SUPPLIES - ORTHOTICS NonFacility $ 411.89
L1833 00 KNEE ORTHOSIS AD DME & SUPPLIES - ORTHOTICS NonFacility $ 482.47
L1834 00 KO W/O KNEE JOIN DME & SUPPLIES - ORTHOTICS NonFacility $ 525.90
L1836 00 KNEE ORTHOSIS RI DME & SUPPLIES - ORTHOTICS NonFacility $ 86.36
L1840 00 KO DEROTATION ME DME & SUPPLIES - ORTHOTICS NonFacility $ 622.93
L1843 00 KO 1 UPRT THI&CA DME & SUPPLIES - ORTHOTICS NonFacility $ 580.76
L1844 00 KNEE ORTHOSIS SI DME & SUPPLIES - ORTHOTICS NonFacility $ 1077.24
L1845 00 KNEE ORTHOSIS DO DME & SUPPLIES - ORTHOTICS NonFacility $ 553.74
L1846 00 KNEE ORTHOSIS DO DME & SUPPLIES - ORTHOTICS NonFacility $ 719.28
L1847 00 KNEE ORTHOSIS DO DME & SUPPLIES - ORTHOTICS NonFacility $ 372.29
L1848 00 KNEE ORTHOSIS AD DME & SUPPLIES - ORTHOTICS NonFacility $ 436.08
L1850 00 KNEE ORTHOSIS SW DME & SUPPLIES - ORTHOTICS NonFacility $ 195.00
L1851 00 KNEE ORTHOSIS SI DME & SUPPLIES - ORTHOTICS NonFacility $ 692.54
L1852 00 KNEE ORTHOSIS DO DME & SUPPLIES - ORTHOTICS NonFacility $ 660.32
L1860 00 KNEE ORTHOS MOD DME & SUPPLIES - ORTHOTICS NonFacility $ 726.98
L1900 00 AFO SPRNG WIRE D DME & SUPPLIES - ORTHOTICS NonFacility $ 182.76
L1902 00 ANKLE ORTH ANKLE DME & SUPPLIES - ORTHOTICS NonFacility $ 54.08
L1904 00 ANKLE ORTH ANKLE DME & SUPPLIES - ORTHOTICS NonFacility $ 318.58
L1906 00 ANK FT ORTHOS MX DME & SUPPLIES - ORTHOTICS NonFacility $ 81.48
L1907 00 ANKLE ORTHOSIS S DME & SUPPLIES - ORTHOTICS NonFacility $ 364.20
L1910 00 AFO POST 1 BAR C DME & SUPPLIES - ORTHOTICS NonFacility $ 181.17
L1920 00 AFO 1 UPRT W/STA DME & SUPPLIES - ORTHOTICS NonFacility $ 236.84
L1930 00 AFO PLASTIC/OTH DME & SUPPLIES - ORTHOTICS NonFacility $ 160.27
L1932 00 AFO RIGD ANT TIB DME & SUPPLIES - ORTHOTICS NonFacility $ 577.58
L1940 00 ANK FT ORTHOS PL DME & SUPPLIES - ORTHOTICS NonFacility $ 335.04
L1945 00 AFO MOLD PLSTC R DME & SUPPLIES - ORTHOTICS NonFacility $ 627.14
L1950 00 AFO SPIRAL PLAST DME & SUPPLIES - ORTHOTICS NonFacility $ 504.62
L1951 00 ANK FT ORTHOF SP DME & SUPPLIES - ORTHOTICS NonFacility $ 543.59
L1960 00 AFO POST SOLID A DME & SUPPLIES - ORTHOTICS NonFacility $ 375.52
L1970 00 AFO PLASTIC W/AN DME & SUPPLIES - ORTHOTICS NonFacility $ 482.08
L1971 00 ANK FT ORTHOF PL DME & SUPPLIES - ORTHOTICS NonFacility $ 303.39
L1980 00 AFO 1 UPRT DORSI DME & SUPPLIES - ORTHOTICS NonFacility $ 248.64
L1990 00 AFO DBL UPRT DOR DME & SUPPLIES - ORTHOTICS NonFacility $ 301.99
L2000 00 KAFO 1 UPRT SOLI DME & SUPPLIES - ORTHOTICS NonFacility $ 687.16
L2005 00 KAFO ANY MATL AU DME & SUPPLIES - ORTHOTICS NonFacility $ 2652.96
L2010 00 KAFO 1 UPRT STIR DME & SUPPLIES - ORTHOTICS NonFacility $ 626.41
L2020 00 KAFO DBL UPRT ST DME & SUPPLIES - ORTHOTICS NonFacility $ 791.06
L2030 00 KAFO DBL UPRT ST DME & SUPPLIES - ORTHOTICS NonFacility $ 686.31
L2034 00 KAFO PLASTIC MED DME & SUPPLIES - ORTHOTICS NonFacility $ 1326.33
L2035 00 KAFO FULL PLSTC DME & SUPPLIES - ORTHOTICS NonFacility $ 112.83
L2036 00 KAFO FULL PLASTI DME & SUPPLIES - ORTHOTICS NonFacility $ 1256.95
L2037 00 KAFO FULL PLASTI DME & SUPPLIES - ORTHOTICS NonFacility $ 1128.41
L2038 00 KAFO FULL PLASTI DME & SUPPLIES - ORTHOTICS NonFacility $ 968.62
L2040 00 HKAFO TORSN CNTR DME & SUPPLIES - ORTHOTICS NonFacility $ 120.29
L2050 00 HKAFO BIL TORSIO DME & SUPPLIES - ORTHOTICS NonFacility $ 322.73
L2060 00 HKAFO BIL TORSIO DME & SUPPLIES - ORTHOTICS NonFacility $ 393.34
L2070 00 HKAFO UNI ROTAT DME & SUPPLIES - ORTHOTICS NonFacility $ 91.11
L2080 00 HKAFO UNI TORSIO DME & SUPPLIES - ORTHOTICS NonFacility $ 243.68
L2090 00 HKAFO UNI TORSN DME & SUPPLIES - ORTHOTICS NonFacility $ 297.07
L2106 00 AFO TIBL FX CAST DME & SUPPLIES - ORTHOTICS NonFacility $ 460.63
L2108 00 AFO TIBL FX CAST DME & SUPPLIES - ORTHOTICS NonFacility $ 723.86
L2112 00 AFO TIBL FX ORTH DME & SUPPLIES - ORTHOTICS NonFacility $ 316.08
L2114 00 AFO TIBL FX ORTH DME & SUPPLIES - ORTHOTICS NonFacility $ 393.23
L2116 00 AFO TIBL FX ORTH DME & SUPPLIES - ORTHOTICS NonFacility $ 482.30
L2126 00 KAFO FEM FX CAST DME & SUPPLIES - ORTHOTICS NonFacility $ 811.25
L2128 00 KAFO FEM FX CAST DME & SUPPLIES - ORTHOTICS NonFacility $ 1161.69
L2132 00 KAFO FEM FX CAST DME & SUPPLIES - ORTHOTICS NonFacility $ 546.51
L2134 00 KAFO FEM FX CAST DME & SUPPLIES - ORTHOTICS NonFacility $ 655.25
L2136 00 KAFO FEM FX CAST DME & SUPPLIES - ORTHOTICS NonFacility $ 801.19
L2180 00 ADD LW EXTRM ORT DME & SUPPLIES - ORTHOTICS NonFacility $ 79.34
L2182 00 ADD LW EXT ORTH DME & SUPPLIES - ORTHOTICS NonFacility $ 62.09
L2184 00 ADD LW EXTRM ORT DME & SUPPLIES - ORTHOTICS NonFacility $ 83.93
L2186 00 ADD LW EXT ORTH DME & SUPPLIES - ORTHOTICS NonFacility $ 102.00
L2188 00 ADD LW EXT FX OR DME & SUPPLIES - ORTHOTICS NonFacility $ 202.90
L2190 00 ADD LOW EXTREM F DME & SUPPLIES - ORTHOTICS NonFacility $ 59.17
L2192 00 ADD LW EXT ORTH DME & SUPPLIES - ORTHOTICS NonFacility $ 241.56
L2200 00 ADD LOW EXTRM LT DME & SUPPLIES - ORTHOTICS NonFacility $ 32.21
L2210 00 ADD LOW EXTREM D DME & SUPPLIES - ORTHOTICS NonFacility $ 45.54
L2220 00 ADD LW EXT DRSFL DME & SUPPLIES - ORTHOTICS NonFacility $ 55.49
L2230 00 ADD LW EXT SPLIT DME & SUPPLIES - ORTHOTICS NonFacility $ 51.98
L2232 00 ADD LOW EXT ORTH DME & SUPPLIES - ORTHOTICS NonFacility $ 63.34
L2240 00 ADD LW EXT ROUND DME & SUPPLIES - ORTHOTICS NonFacility $ 56.66
L2250 00 ADD LW EXT FT PL DME & SUPPLIES - ORTHOTICS NonFacility $ 240.73
L2260 00 ADD LW EXT REINF DME & SUPPLIES - ORTHOTICS NonFacility $ 135.81
L2265 00 ADD LOW EXTREM L DME & SUPPLIES - ORTHOTICS NonFacility $ 79.79
L2270 00 ADD LW EXT VARUS DME & SUPPLIES - ORTHOTICS NonFacility $ 36.39
L2275 00 ADD LW EXT VARUS DME & SUPPLIES - ORTHOTICS NonFacility $ 84.97
L2280 00 ADD LOW EXTREM M DME & SUPPLIES - ORTHOTICS NonFacility $ 306.77
L2300 00 ADD LW EXTRM ABD DME & SUPPLIES - ORTHOTICS NonFacility $ 182.40
L2310 00 ADD LOW EXTREM A DME & SUPPLIES - ORTHOTICS NonFacility $ 83.34
L2320 00 ADD LOW EXT NONM DME & SUPPLIES - ORTHOTICS NonFacility $ 139.39
L2330 00 ADD LOW EXT LACE DME & SUPPLIES - ORTHOTICS NonFacility $ 266.02
L2335 00 ADDITION LOW EXT DME & SUPPLIES - ORTHOTICS NonFacility $ 153.91
L2340 00 ADD LW EXTRM PRE DME & SUPPLIES - ORTHOTICS NonFacility $ 302.79
L2350 00 ADD LW EXT PROST DME & SUPPLIES - ORTHOTICS NonFacility $ 603.67
L2360 00 ADDITION LOW EXT DME & SUPPLIES - ORTHOTICS NonFacility $ 35.06
L2370 00 ADDITION LOWER E DME & SUPPLIES - ORTHOTICS NonFacility $ 173.92
L2375 00 ADD LW EXT TORSI DME & SUPPLIES - ORTHOTICS NonFacility $ 76.55
L2380 00 ADD LW EXT TORSN DME & SUPPLIES - ORTHOTICS NonFacility $ 83.40
L2385 00 ADD LW EXT STRAI DME & SUPPLIES - ORTHOTICS NonFacility $ 90.75
L2387 00 ADD LW EXT POLYC DME & SUPPLIES - ORTHOTICS NonFacility $ 112.12
L2390 00 ADD LW EXTRM OFF DME & SUPPLIES - ORTHOTICS NonFacility $ 74.16
L2395 00 ADD LW EXT OFFSE DME & SUPPLIES - ORTHOTICS NonFacility $ 106.00
L2397 00 ADD LOW EXTREM O DME & SUPPLIES - ORTHOTICS NonFacility $ 76.14
L2405 00 ADDITION TO KNEE DME & SUPPLIES - ORTHOTICS NonFacility $ 56.43
L2415 00 ADD KNEE LOCK-IN DME & SUPPLIES - ORTHOTICS NonFacility $ 78.62
L2425 00 ADD KNEE JNT DIS DME & SUPPLIES - ORTHOTICS NonFacility $ 92.78
L2430 00 ADD KNEE JNT RAT DME & SUPPLIES - ORTHOTICS NonFacility $ 92.78
L2492 00 ADD KNEE LIFT LO DME & SUPPLIES - ORTHOTICS NonFacility $ 69.08
L2500 00 ADD LW EXTRM THI DME & SUPPLIES - ORTHOTICS NonFacility $ 213.72
L2510 00 ADD LW EXTRM THI DME & SUPPLIES - ORTHOTICS NonFacility $ 492.11
L2520 00 ADD LW EXTRM THI DME & SUPPLIES - ORTHOTICS NonFacility $ 312.10
L2525 00 ADD LW EXT ISCH DME & SUPPLIES - ORTHOTICS NonFacility $ 825.84
L2526 00 ADD LW EXTRM ISC DME & SUPPLIES - ORTHOTICS NonFacility $ 464.04
L2530 00 ADD LW EXT THI/W DME & SUPPLIES - ORTHOTICS NonFacility $ 159.18
L2540 00 ADD LW EXT THI/W DME & SUPPLIES - ORTHOTICS NonFacility $ 286.43
L2550 00 ADD LW EXT THI/W DME & SUPPLIES - ORTHOTICS NonFacility $ 194.57
L2570 00 ADD LW EXT PELV DME & SUPPLIES - ORTHOTICS NonFacility $ 322.70
L2580 00 ADD LOW EXTRM PE DME & SUPPLIES - ORTHOTICS NonFacility $ 314.42
L2600 00 ADD LW EXT PELV DME & SUPPLIES - ORTHOTICS NonFacility $ 139.14
L2610 00 ADD LW EXT PELV DME & SUPPLIES - ORTHOTICS NonFacility $ 164.53
L2620 00 ADD LW EXT PLV H DME & SUPPLIES - ORTHOTICS NonFacility $ 181.14
L2622 00 ADD LW EXT PELV DME & SUPPLIES - ORTHOTICS NonFacility $ 207.76
L2624 00 ADD LW EXTRM PEL DME & SUPPLIES - ORTHOTICS NonFacility $ 224.34
L2627 00 ADD LW EXT PELV DME & SUPPLIES - ORTHOTICS NonFacility $ 1161.40
L2628 00 ADD LW EXT PELV DME & SUPPLIES - ORTHOTICS NonFacility $ 1135.04
L2630 00 ADD LW EXTRM PEL DME & SUPPLIES - ORTHOTICS NonFacility $ 167.76
L2640 00 ADD LW EXTRM PEL DME & SUPPLIES - ORTHOTICS NonFacility $ 227.67
L2650 00 ADD LW EXTRM PEL DME & SUPPLIES - ORTHOTICS NonFacility $ 81.31
L2660 00 ADD LOW EXTREM T DME & SUPPLIES - ORTHOTICS NonFacility $ 126.27
L2670 00 ADD LW EXTRM THO DME & SUPPLIES - ORTHOTICS NonFacility $ 115.57
L2680 00 ADD LW EXT THOR DME & SUPPLIES - ORTHOTICS NonFacility $ 106.02
L2750 00 ADD LW EXT ORTHO DME & SUPPLIES - ORTHOTICS NonFacility $ 56.63
L2755 00 ADD LOW EXT ORTH DME & SUPPLIES - ORTHOTICS NonFacility $ 84.57
L2760 00 ADD LOW EXTREM O DME & SUPPLIES - ORTHOTICS NonFacility $ 41.16
L2768 00 ORTHOTIC SIDE BA DME & SUPPLIES - ORTHOTICS NonFacility $ 84.34
L2780 00 ADD LW EXT ORTH DME & SUPPLIES - ORTHOTICS NonFacility $ 45.85
L2785 00 ADD LW EXT ORTHO DME & SUPPLIES - ORTHOTICS NonFacility $ 21.47
L2795 00 ADD LW EXT ORTH DME & SUPPLIES - ORTHOTICS NonFacility $ 57.56
L2800 00 ADD LOW EXT ORTH DME & SUPPLIES - ORTHOTICS NonFacility $ 72.26
L2810 00 ADD LW EXT ORTH DME & SUPPLIES - ORTHOTICS NonFacility $ 52.91
L2820 00 ADD LW EXT SFT I DME & SUPPLIES - ORTHOTICS NonFacility $ 58.83
L2830 00 ADD LW EXT SFT I DME & SUPPLIES - ORTHOTICS NonFacility $ 63.65
L2840 00 ADD LW EXT ORTH DME & SUPPLIES - ORTHOTICS NonFacility $ 29.60
L2850 00 ADD LW EXT ORTHO DME & SUPPLIES - ORTHOTICS NonFacility $ 41.95
L3000 00 FT INSRT MOLD UC DME & SUPPLIES - ORTHOTICS NonFacility $ 203.33
L3001 00 FOOT INSRT REMV DME & SUPPLIES - ORTHOTICS NonFacility $ 85.61
L3002 00 FT INSRT REMV MO DME & SUPPLIES - ORTHOTICS NonFacility $ 104.54
L3003 00 FOOT INSRT REMV DME & SUPPLIES - ORTHOTICS NonFacility $ 112.78
L3010 00 FT INSRT MOLD LN DME & SUPPLIES - ORTHOTICS NonFacility $ 112.78
L3020 00 FT INSRT REMV MO DME & SUPPLIES - ORTHOTICS NonFacility $ 128.42
L3030 00 FOOT INSERT REMV DME & SUPPLIES - ORTHOTICS NonFacility $ 49.39
L3031 00 FOOT INSRT/PLAT DME & SUPPLIES - ORTHOTICS NonFacility $ 93.08
L3040 00 FOOT ARCH SUPP P DME & SUPPLIES - ORTHOTICS NonFacility $ 30.46
L3050 00 FOOT ARCH SUPP R DME & SUPPLIES - ORTHOTICS NonFacility $ 30.46
L3060 00 FT ARCH SUPP PRE DME & SUPPLIES - ORTHOTICS NonFacility $ 47.75
L3070 00 FOOT ARCH SUPP N DME & SUPPLIES - ORTHOTICS NonFacility $ 20.57
L3080 00 FT ARCH SUPP NON DME & SUPPLIES - ORTHOTICS NonFacility $ 20.57
L3090 00 FT ARCH SUPP NON DME & SUPPLIES - ORTHOTICS NonFacility $ 26.35
L3100 00 HALLUS-VALGUS NI DME & SUPPLIES - ORTHOTICS NonFacility $ 27.98
L3140 00 FOOT ABDUCT ROTA DME & SUPPLIES - ORTHOTICS NonFacility $ 57.63
L3150 00 FOOT ABDUCT ROTA DME & SUPPLIES - ORTHOTICS NonFacility $ 52.69
L3160 00 FOOT ADJUSTBL SH DME & SUPPLIES - ORTHOTICS NonFacility $ 9.89
L3170 00 FOOT PLASTIC SIL DME & SUPPLIES - ORTHOTICS NonFacility $ 32.94
L3201 00 ORTHOPED SHOE OX DME & SUPPLIES - ORTHOTICS NonFacility $ 38.54
L3202 00 ORTHOPED SHOE OX DME & SUPPLIES - ORTHOTICS NonFacility $ 37.86
L3203 00 ORTHOPED SHOE OX DME & SUPPLIES - ORTHOTICS NonFacility $ 36.84
L3204 00 ORTHOPED SHOE HI DME & SUPPLIES - ORTHOTICS NonFacility $ 36.84
L3206 00 ORTHOPED SHOE HI DME & SUPPLIES - ORTHOTICS NonFacility $ 38.21
L3207 00 ORTHOPED SHOE HI DME & SUPPLIES - ORTHOTICS NonFacility $ 38.88
L3208 00 SURGICAL BOOT EA DME & SUPPLIES - ORTHOTICS NonFacility $ 20.47
L3209 00 SURGICAL BOOT EA DME & SUPPLIES - ORTHOTICS NonFacility $ 28.99
L3211 00 SURGICAL BOOT EA DME & SUPPLIES - ORTHOTICS NonFacility $ 30.70
L3212 00 BENESCH BOOT PAI DME & SUPPLIES - ORTHOTICS NonFacility $ 42.98
L3213 00 BENESCH BOOT PAI DME & SUPPLIES - ORTHOTICS NonFacility $ 51.84
L3214 00 BENESCH BOOT PAI DME & SUPPLIES - ORTHOTICS NonFacility $ 55.25
L3215 00 ORTHOPEDIC FOOTW DME & SUPPLIES - ORTHOTICS NonFacility $ 70.26
L3216 00 ORTHOPEDIC FOOTW DME & SUPPLIES - ORTHOTICS NonFacility $ 84.92
L3217 00 ORTHOPED FTWEAR DME & SUPPLIES - ORTHOTICS NonFacility $ 92.09
L3219 00 ORTHOPEDIC FOOTW DME & SUPPLIES - ORTHOTICS NonFacility $ 78.79
L3221 00 ORTHOPEDIC FOOTW DME & SUPPLIES - ORTHOTICS NonFacility $ 94.48
L3222 00 ORTHOPED FOOTWEA DME & SUPPLIES - ORTHOTICS NonFacility $ 104.37
L3224 00 ORTHO FTWEAR WOM DME & SUPPLIES - ORTHOTICS NonFacility $ 39.83
L3225 00 ORTHO FTWEAR MAN DME & SUPPLIES - ORTHOTICS NonFacility $ 45.83
L3230 00 ORTHOPEDIC FOOTW DME & SUPPLIES - ORTHOTICS NonFacility $ 123.13
L3250 00 ORTHOPED FOOTWEA DME & SUPPLIES - ORTHOTICS NonFacility $ 239.44
L3251 00 FOOT SHOE MOLD P DME & SUPPLIES - ORTHOTICS NonFacility $ 33.08
L3252 00 FOOT SHOE MOLD P DME & SUPPLIES - ORTHOTICS NonFacility $ 130.98
L3253 00 FOOT MOLD SHOE P DME & SUPPLIES - ORTHOTICS NonFacility $ 32.74
L3257 00 ORTHOPED FOOTWEA DME & SUPPLIES - ORTHOTICS NonFacility $ 23.88
L3260 00 SURGICAL BOOT/SH DME & SUPPLIES - ORTHOTICS NonFacility $ 13.30
L3265 00 PLASTAZOTE SANDA DME & SUPPLIES - ORTHOTICS NonFacility $ 14.67
L3300 00 LIFT ELEV HEEL T DME & SUPPLIES - ORTHOTICS NonFacility $ 33.75
L3310 00 LIFT ELEV HEEL&S DME & SUPPLIES - ORTHOTICS NonFacility $ 52.69
L3320 00 LIFT ELEV HEEL&S DME & SUPPLIES - ORTHOTICS NonFacility $ 88.68
L3330 00 LIFT ELEVATION M DME & SUPPLIES - ORTHOTICS NonFacility $ 366.31
L3332 00 LIFT ELEV IN SHO DME & SUPPLIES - ORTHOTICS NonFacility $ 47.75
L3334 00 LIFT ELEVATION H DME & SUPPLIES - ORTHOTICS NonFacility $ 24.70
L3340 00 HEEL WEDGE SACH DME & SUPPLIES - ORTHOTICS NonFacility $ 55.16
L3350 00 HEEL WEDGE DME & SUPPLIES - ORTHOTICS NonFacility $ 14.81
L3360 00 SOLE WEDGE OUTSI DME & SUPPLIES - ORTHOTICS NonFacility $ 23.05
L3370 00 SOLE WEDGE BETWE DME & SUPPLIES - ORTHOTICS NonFacility $ 32.09
L3380 00 CLUBFOOT WEDGE DME & SUPPLIES - ORTHOTICS NonFacility $ 32.09
L3390 00 OUTFLARE WEDGE DME & SUPPLIES - ORTHOTICS NonFacility $ 32.09
L3400 00 METATARSAL BAR W DME & SUPPLIES - ORTHOTICS NonFacility $ 26.35
L3410 00 METATARSAL BAR W DME & SUPPLIES - ORTHOTICS NonFacility $ 60.09
L3420 00 FULL SOLE&HEEL W DME & SUPPLIES - ORTHOTICS NonFacility $ 35.40
L3430 00 HEEL COUNTER PLA DME & SUPPLIES - ORTHOTICS NonFacility $ 103.73
L3440 00 HEEL COUNTER LEA DME & SUPPLIES - ORTHOTICS NonFacility $ 49.39
L3450 00 HEEL SACH CUSHIO DME & SUPPLIES - ORTHOTICS NonFacility $ 68.32
L3455 00 HEEL NEW LEATHER DME & SUPPLIES - ORTHOTICS NonFacility $ 26.35
L3460 00 HEEL NEW RUBBER DME & SUPPLIES - ORTHOTICS NonFacility $ 22.22
L3465 00 HEEL THOMAS WITH DME & SUPPLIES - ORTHOTICS NonFacility $ 37.87
L3470 00 HEEL THOMAS EXTE DME & SUPPLIES - ORTHOTICS NonFacility $ 40.33
L3480 00 HEEL PAD AND DEP DME & SUPPLIES - ORTHOTICS NonFacility $ 40.33
L3485 00 HEEL PAD REMOVAB DME & SUPPLIES - ORTHOTICS NonFacility $ 13.30
L3500 00 ORTHOPED SHOE AD DME & SUPPLIES - ORTHOTICS NonFacility $ 18.94
L3510 00 ORTHOPED SHOE AD DME & SUPPLIES - ORTHOTICS NonFacility $ 18.94
L3520 00 ORTHO SHOE ADD I DME & SUPPLIES - ORTHOTICS NonFacility $ 20.57
L3530 00 ORTHOPEDIC SHOE DME & SUPPLIES - ORTHOTICS NonFacility $ 20.57
L3540 00 ORTHOPEDIC SHOE DME & SUPPLIES - ORTHOTICS NonFacility $ 32.94
L3550 00 ORTHOPED SHOE AD DME & SUPPLIES - ORTHOTICS NonFacility $ 5.77
L3560 00 ORTHOPED SHOE AD DME & SUPPLIES - ORTHOTICS NonFacility $ 14.81
L3570 00 ORTHOPED SHOE AD DME & SUPPLIES - ORTHOTICS NonFacility $ 55.16
L3580 00 ORTHO SHOE ADD I DME & SUPPLIES - ORTHOTICS NonFacility $ 41.98
L3590 00 ORTHO SHOE ADD F DME & SUPPLIES - ORTHOTICS NonFacility $ 34.58
L3595 00 ORTHOPEDIC SHOE DME & SUPPLIES - ORTHOTICS NonFacility $ 27.15
L3600 00 TRANSF ORTHOS 1 DME & SUPPLIES - ORTHOTICS NonFacility $ 49.39
L3610 00 TRNSF ORTHOS ONE DME & SUPPLIES - ORTHOTICS NonFacility $ 65.03
L3620 00 TRANS ORTHOS 1 S DME & SUPPLIES - ORTHOTICS NonFacility $ 49.39
L3630 00 TRNSF ORTH-ANOTH DME & SUPPLIES - ORTHOTICS NonFacility $ 65.03
L3640 00 TRNS ORTHOS SHOE DME & SUPPLIES - ORTHOTICS NonFacility $ 27.98
L3650 00 SHOULDER ORTHOSI DME & SUPPLIES - ORTHOTICS NonFacility $ 39.31
L3660 00 SHOULDER ORTHOSI DME & SUPPLIES - ORTHOTICS NonFacility $ 68.14
L3670 00 SHOULDER ORTHOSI DME & SUPPLIES - ORTHOTICS NonFacility $ 74.97
L3671 00 SHOULDER ORTHOTI DME & SUPPLIES - ORTHOTICS NonFacility $ 530.78
L3674 00 SHOULDER ORTHOTI DME & SUPPLIES - ORTHOTICS NonFacility $ 782.36
L3675 00 SHOULDER ORTHOSI DME & SUPPLIES - ORTHOTICS NonFacility $ 103.37
L3677 00 SHOULDER ORTHOSI DME & SUPPLIES - ORTHOTICS NonFacility $ 96.87
L3702 00 ELBOW ORTHOSIS W DME & SUPPLIES - ORTHOTICS NonFacility $ 170.09
L3710 00 ELBOW ORTHOSIS E DME & SUPPLIES - ORTHOTICS NonFacility $ 81.95
L3720 00 EO DBL UPRT W/CU DME & SUPPLIES - ORTHOTICS NonFacility $ 433.62
L3730 00 EO DBL UPRT-CUFF DME & SUPPLIES - ORTHOTICS NonFacility $ 597.62
L3740 00 EO DBL UPRT W/CU DME & SUPPLIES - ORTHOTICS NonFacility $ 708.53
L3760 00 ELBOW ORTHOSIS A DME & SUPPLIES - ORTHOTICS NonFacility $ 294.59
L3761 00 ELBOW ORTHOSIS A DME & SUPPLIES - ORTHOTICS NonFacility $ 355.15
L3762 00 ELBOW ORTHOSIS R DME & SUPPLIES - ORTHOTICS NonFacility $ 63.34
L3763 00 EWHO RIGID W/O J DME & SUPPLIES - ORTHOTICS NonFacility $ 755.33
L3764 00 EWHO INCL 1/MORE DME & SUPPLIES - ORTHOTICS NonFacility $ 799.83
L3765 00 EWHFO RIGID W/O DME & SUPPLIES - ORTHOTICS NonFacility $ 755.33
L3766 00 EWHFO INCL 1/MOR DME & SUPPLIES - ORTHOTICS NonFacility $ 799.83
L3806 00 WHFO CUSTOM FABR DME & SUPPLIES - ORTHOTICS NonFacility $ 279.08
L3807 00 WRIST HAND FINGR DME & SUPPLIES - ORTHOTICS NonFacility $ 147.29
L3808 00 WRIST HAND FINGE DME & SUPPLIES - ORTHOTICS NonFacility $ 173.39
L3809 00 WRIST HAND FINGE DME & SUPPLIES - ORTHOTICS NonFacility $ 172.54
L3900 00 WHFO DYN FLX HNG DME & SUPPLIES - ORTHOTICS NonFacility $ 857.83
L3901 00 WHFO DYN FLX HNG DME & SUPPLIES - ORTHOTICS NonFacility $ 1065.38
L3904 00 WHFO EXTERNAL PO DME & SUPPLIES - ORTHOTICS NonFacility $ 1941.41
L3905 00 WHO INCL 1/MORE DME & SUPPLIES - ORTHOTICS NonFacility $ 584.18
L3906 00 WHO W/O JNT MAY DME & SUPPLIES - ORTHOTICS NonFacility $ 261.95
L3908 00 WRIST HAND ORTHO DME & SUPPLIES - ORTHOTICS NonFacility $ 39.73
L3912 00 HAND FINGER ORTH DME & SUPPLIES - ORTHOTICS NonFacility $ 62.87
L3913 00 HAND FINGER ORTH DME & SUPPLIES - ORTHOTICS NonFacility $ 159.54
L3915 00 WRIST HAND ORTHO DME & SUPPLIES - ORTHOTICS NonFacility $ 326.59
L3916 00 WRIST HAND ORTHO DME & SUPPLIES - ORTHOTICS NonFacility $ 366.79
L3917 00 HAND ORTHOSIS ME DME & SUPPLIES - ORTHOTICS NonFacility $ 62.22
L3918 00 HAND ORTHOSIS ME DME & SUPPLIES - ORTHOTICS NonFacility $ 72.89
L3919 00 HAND ORTHOSIS W/ DME & SUPPLIES - ORTHOTICS NonFacility $ 159.54
L3921 00 HFO INCL 1/MORE DME & SUPPLIES - ORTHOTICS NonFacility $ 189.22
L3923 00 HAND FINGER ORTH DME & SUPPLIES - ORTHOTICS NonFacility $ 22.92
L3924 00 HAND FINGER ORTH DME & SUPPLIES - ORTHOTICS NonFacility $ 67.55
L3925 00 FINGER ORTHOSIS DME & SUPPLIES - ORTHOTICS NonFacility $ 35.06
L3927 00 FINGER ORTHOSIS DME & SUPPLIES - ORTHOTICS NonFacility $ 22.07
L3929 00 HAND FINGER ORTH DME & SUPPLIES - ORTHOTICS NonFacility $ 55.51
L3930 00 HAND FINGER ORTH DME & SUPPLIES - ORTHOTICS NonFacility $ 60.71
L3931 00 WHFO PREFABRICAT DME & SUPPLIES - ORTHOTICS NonFacility $ 129.49
L3933 00 FINGER ORTHOSIS DME & SUPPLIES - ORTHOTICS NonFacility $ 125.69
L3935 00 FINGER ORTHOSIS DME & SUPPLIES - ORTHOTICS NonFacility $ 130.14
L3960 00 SEWHO ABDUCT PST DME & SUPPLIES - ORTHOTICS NonFacility $ 487.22
L3961 00 SEWHO SHOULDER C DME & SUPPLIES - ORTHOTICS NonFacility $ 989.70
L3962 00 SEWHO ABDUCT PST DME & SUPPLIES - ORTHOTICS NonFacility $ 475.66
L3967 00 SEWHO ABDUCTION DME & SUPPLIES - ORTHOTICS NonFacility $ 1168.50
L3971 00 SEWHO SHOULDER C DME & SUPPLIES - ORTHOTICS NonFacility $ 1109.17
L3973 00 SEWHO ABDUCT PST DME & SUPPLIES - ORTHOTICS NonFacility $ 1168.50
L3975 00 SEWHFO SHOULDER DME & SUPPLIES - ORTHOTICS NonFacility $ 989.70
L3976 00 SEWHFO ABDUCT PS DME & SUPPLIES - ORTHOTICS NonFacility $ 989.70
L3977 00 SEWHFO SHOULD CA DME & SUPPLIES - ORTHOTICS NonFacility $ 1109.17
L3978 00 SEWHFO ABDUCT PS DME & SUPPLIES - ORTHOTICS NonFacility $ 1168.50
L3980 00 UP EXT FX ORTHOS DME & SUPPLIES - ORTHOTICS NonFacility $ 204.95
L3981 00 UPPER EXTREMITY DME & SUPPLIES - ORTHOTICS NonFacility $ 705.13
L3982 00 UP EXTRM FX ORTH DME & SUPPLIES - ORTHOTICS NonFacility $ 247.49
L3984 00 UP EXTRM FX ORTH DME & SUPPLIES - ORTHOTICS NonFacility $ 228.18
L3995 00 ADD UP EXTREM OR DME & SUPPLIES - ORTHOTICS NonFacility $ 21.68
L4000 00 REPLACE GIRDLE F DME & SUPPLIES - ORTHOTICS NonFacility $ 863.82
L4010 00 REPLACE TRILATER DME & SUPPLIES - ORTHOTICS NonFacility $ 454.67
L4020 00 REPL QUADRILAT S DME & SUPPLIES - ORTHOTICS NonFacility $ 583.53
L4030 00 REPL QUADRILAT S DME & SUPPLIES - ORTHOTICS NonFacility $ 342.05
L4040 00 REPLACE MOLDED T DME & SUPPLIES - ORTHOTICS NonFacility $ 276.54
L4045 00 REPLACE NONMOLD DME & SUPPLIES - ORTHOTICS NonFacility $ 222.24
L4050 00 REPLACE MOLDED C DME & SUPPLIES - ORTHOTICS NonFacility $ 279.69
L4055 00 REPLACE NONMOLD DME & SUPPLIES - ORTHOTICS NonFacility $ 181.11
L4060 00 REPLACE HIGH ROL DME & SUPPLIES - ORTHOTICS NonFacility $ 215.31
L4070 00 REPLACE PROXIMAL DME & SUPPLIES - ORTHOTICS NonFacility $ 190.67
L4080 00 REPLACE METAL BA DME & SUPPLIES - ORTHOTICS NonFacility $ 68.53
L4090 00 REPL METL BANDS DME & SUPPLIES - ORTHOTICS NonFacility $ 61.18
L4100 00 REPLACE LEATHR C DME & SUPPLIES - ORTHOTICS NonFacility $ 70.66
L4110 00 REPL LEATHR CUFF DME & SUPPLIES - ORTHOTICS NonFacility $ 57.46
L4130 00 REPLACE PRETIBIA DME & SUPPLIES - ORTHOTICS NonFacility $ 336.12
L4205 00 REPAIROF OTHOTIC DME & SUPPLIES - ORTHOTICS NonFacility $ 18.48
L4350 00 ANKLE CONTROL OR DME & SUPPLIES - ORTHOTICS NonFacility $ 60.56
L4360 00 WALKING BOOT PNE DME & SUPPLIES - ORTHOTICS NonFacility $ 187.59
L4361 00 WALKING BOOT PNE DME & SUPPLIES - ORTHOTICS NonFacility $ 219.74
L4370 00 PNEUMATIC FULL L DME & SUPPLIES - ORTHOTICS NonFacility $ 127.90
L4386 00 WALKING BOOT NON DME & SUPPLIES - ORTHOTICS NonFacility $ 102.63
L4387 00 WALKING BOOT NON DME & SUPPLIES - ORTHOTICS NonFacility $ 120.21
L4392 00 REPLCMT SFT INTE DME & SUPPLIES - ORTHOTICS NonFacility $ 15.21
L4394 00 REPL SFT INTRFCE DME & SUPPLIES - ORTHOTICS NonFacility $ 11.10
L4396 00 STATIC/DYNAMIC A DME & SUPPLIES - ORTHOTICS NonFacility $ 108.43
L4397 00 STATIC/DYNAMIC A DME & SUPPLIES - ORTHOTICS NonFacility $ 127.01
L4398 00 FOOT DROP SPLINT DME & SUPPLIES - ORTHOTICS NonFacility $ 49.91
L4631 00 AFO WALK BOOT TY DME & SUPPLIES - ORTHOTICS NonFacility $ 1121.62
L5000 00 PART FT SHOE INS DME & SUPPLIES - PROSTHETICS NonFacility $ 364.68
L5010 00 PART FT MOLD SOC DME & SUPPLIES - PROSTHETICS NonFacility $ 878.72
L5020 00 PART FT MOLD SOC DME & SUPPLIES - PROSTHETICS NonFacility $ 1430.37
L5050 00 ANKLE SYMES MOLD DME & SUPPLIES - PROSTHETICS NonFacility $ 1656.44
L5060 00 ANK SYMS METL FR DME & SUPPLIES - PROSTHETICS NonFacility $ 1993.54
L5100 00 BELW KNEE MOLD S DME & SUPPLIES - PROSTHETICS NonFacility $ 1677.51
L5105 00 BK PLSTC SCKT JN DME & SUPPLIES - PROSTHETICS NonFacility $ 2507.40
L5150 00 KNEE DISRTC MOLD DME & SUPPLIES - PROSTHETICS NonFacility $ 2534.63
L5160 00 KNEE DISARTIC MO DME & SUPPLIES - PROSTHETICS NonFacility $ 2756.87
L5200 00 AK MOLD SOCKT 1 DME & SUPPLIES - PROSTHETICS NonFacility $ 2384.35
L5210 00 AK SHRT PROS NO DME & SUPPLIES - PROSTHETICS NonFacility $ 1751.44
L5220 00 AK SHRT PROSTH W DME & SUPPLIES - PROSTHETICS NonFacility $ 1990.83
L5230 00 AK PROX FEM FOCA DME & SUPPLIES - PROSTHETICS NonFacility $ 2745.75
L5250 00 HIP DISRTC CANAD DME & SUPPLIES - PROSTHETICS NonFacility $ 3744.95
L5270 00 HIP DISRTC TLT T DME & SUPPLIES - PROSTHETICS NonFacility $ 3712.14
L5280 00 HEMIPELVECT CANA DME & SUPPLIES - PROSTHETICS NonFacility $ 3675.02
L5301 00 BK MOLD SCKT SHI DME & SUPPLIES - PROSTHETICS NonFacility $ 1657.22
L5312 00 KNEE DISARTIC MO DME & SUPPLIES - PROSTHETICS NonFacility $ 2739.20
L5321 00 AK OPEN END SACH DME & SUPPLIES - PROSTHETICS NonFacility $ 2372.25
L5331 00 JOINT SINGLE AXI DME & SUPPLIES - PROSTHETICS NonFacility $ 3356.82
L5341 00 SINGLE AXIS KNEE DME & SUPPLIES - PROSTHETICS NonFacility $ 3647.80
L5400 00 IMMED POSTSURG R DME & SUPPLIES - PROSTHETICS NonFacility $ 868.68
L5410 00 IMMED POSTSURG R DME & SUPPLIES - PROSTHETICS NonFacility $ 301.57
L5420 00 IMMED POSTSURG R DME & SUPPLIES - PROSTHETICS NonFacility $ 1097.11
L5430 00 IMMED POSTSURG R DME & SUPPLIES - PROSTHETICS NonFacility $ 363.20
L5450 00 IMMED POSTSURG N DME & SUPPLIES - PROSTHETICS NonFacility $ 294.06
L5460 00 IMMED POSTSURG N DME & SUPPLIES - PROSTHETICS NonFacility $ 393.57
L5500 00 INIT BK PTB SCKT DME & SUPPLIES - PROSTHETICS NonFacility $ 926.99
L5505 00 INIT AK-DISRTC I DME & SUPPLIES - PROSTHETICS NonFacility $ 1255.39
L5510 00 PREP BK PTB SCKT DME & SUPPLIES - PROSTHETICS NonFacility $ 1050.80
L5520 00 PREP BK PTB THER DME & SUPPLIES - PROSTHETICS NonFacility $ 1037.94
L5530 00 PREP BK PTB THER DME & SUPPLIES - PROSTHETICS NonFacility $ 1246.67
L5535 00 PREP BELOW KNEE DME & SUPPLIES - PROSTHETICS NonFacility $ 1223.98
L5540 00 PREP BK PTB LAMI DME & SUPPLIES - PROSTHETICS NonFacility $ 1306.38
L5560 00 PREP AK-DISARTIC DME & SUPPLIES - PROSTHETICS NonFacility $ 1402.82
L5570 00 PREP AK-DISRTC T DME & SUPPLIES - PROSTHETICS NonFacility $ 1458.44
L5580 00 PREP AK-DISARTIC DME & SUPPLIES - PROSTHETICS NonFacility $ 1702.62
L5585 00 PREP AK-DISARTIC DME & SUPPLIES - PROSTHETICS NonFacility $ 1846.70
L5590 00 PREP AK-DISARTC DME & SUPPLIES - PROSTHETICS NonFacility $ 1735.09
L5595 00 PREP HIP DISARTC DME & SUPPLIES - PROSTHETICS NonFacility $ 2906.22
L5600 00 PREP HIP DISARTC DME & SUPPLIES - PROSTHETICS NonFacility $ 3209.33
L5610 00 ADD LW EXTRM END DME & SUPPLIES - PROSTHETICS NonFacility $ 1494.35
L5611 00 ADD LW EXT AK-DI DME & SUPPLIES - PROSTHETICS NonFacility $ 1162.90
L5613 00 ADD LW EXT AK-DS DME & SUPPLIES - PROSTHETICS NonFacility $ 1768.84
L5614 00 ADD LW EXT AK-DS DME & SUPPLIES - PROSTHETICS NonFacility $ 1094.36
L5616 00 ADD LW EXT AK UN DME & SUPPLIES - PROSTHETICS NonFacility $ 980.28
L5617 00 ADD LW EXTREM QU DME & SUPPLIES - PROSTHETICS NonFacility $ 365.18
L5618 00 ADD LOW EXTREM T DME & SUPPLIES - PROSTHETICS NonFacility $ 202.99
L5620 00 ADD LOW EXTREM T DME & SUPPLIES - PROSTHETICS NonFacility $ 200.66
L5622 00 ADD LW EXTRM TST DME & SUPPLIES - PROSTHETICS NonFacility $ 261.66
L5624 00 ADD LOW EXTREM T DME & SUPPLIES - PROSTHETICS NonFacility $ 262.40
L5626 00 ADD LW EXTRM TST DME & SUPPLIES - PROSTHETICS NonFacility $ 344.13
L5628 00 ADD LOW EXTRM TS DME & SUPPLIES - PROSTHETICS NonFacility $ 348.49
L5629 00 ADD LW EXTRM BEL DME & SUPPLIES - PROSTHETICS NonFacility $ 229.38
L5630 00 ADD LW EXT SYMS DME & SUPPLIES - PROSTHETICS NonFacility $ 323.93
L5631 00 ADD LW EXT ABVE DME & SUPPLIES - PROSTHETICS NonFacility $ 317.13
L5632 00 ADD LW EXT SYMS DME & SUPPLIES - PROSTHETICS NonFacility $ 160.26
L5634 00 ADD LW EXT SYMS DME & SUPPLIES - PROSTHETICS NonFacility $ 219.56
L5636 00 ADD LW EXT SYMS DME & SUPPLIES - PROSTHETICS NonFacility $ 183.91
L5637 00 ADD LOW EXTREM B DME & SUPPLIES - PROSTHETICS NonFacility $ 208.51
L5638 00 ADD LW EXTRM BEL DME & SUPPLIES - PROSTHETICS NonFacility $ 351.26
L5639 00 ADD LOW EXTREM B DME & SUPPLIES - PROSTHETICS NonFacility $ 809.24
L5640 00 ADD LW EXT KNEE DME & SUPPLIES - PROSTHETICS NonFacility $ 461.53
L5642 00 ADD LW EXTRM ABV DME & SUPPLIES - PROSTHETICS NonFacility $ 447.18
L5643 00 ADD LW XTRM HIP DME & SUPPLIES - PROSTHETICS NonFacility $ 1123.40
L5644 00 ADD LOW EXTREM A DME & SUPPLIES - PROSTHETICS NonFacility $ 426.31
L5645 00 ADD LW EXTRM BK DME & SUPPLIES - PROSTHETICS NonFacility $ 575.89
L5646 00 ADD LOW EXT BELO DME & SUPPLIES - PROSTHETICS NonFacility $ 395.47
L5647 00 ADD LOW EXTRM BE DME & SUPPLIES - PROSTHETICS NonFacility $ 574.14
L5648 00 ADD LOW EXT ABOV DME & SUPPLIES - PROSTHETICS NonFacility $ 475.20
L5649 00 ADD LW EXT ISCHI DME & SUPPLIES - PROSTHETICS NonFacility $ 1374.21
L5650 00 ADD LW EXTRM TOT DME & SUPPLIES - PROSTHETICS NonFacility $ 352.36
L5651 00 ADD LW EXTRM AK DME & SUPPLIES - PROSTHETICS NonFacility $ 866.79
L5652 00 ADD LW EXTRM SUC DME & SUPPLIES - PROSTHETICS NonFacility $ 314.68
L5653 00 ADD LW EXT KNEE DME & SUPPLIES - PROSTHETICS NonFacility $ 420.07
L5654 00 ADD LOW EXTREM S DME & SUPPLIES - PROSTHETICS NonFacility $ 239.36
L5655 00 ADD LOW EXTRM SO DME & SUPPLIES - PROSTHETICS NonFacility $ 191.45
L5656 00 ADD LW EXT SOCKT DME & SUPPLIES - PROSTHETICS NonFacility $ 267.74
L5658 00 ADD LOW EXTRM SO DME & SUPPLIES - PROSTHETICS NonFacility $ 262.43
L5661 00 ADD LW EXT INSRT DME & SUPPLIES - PROSTHETICS NonFacility $ 439.23
L5665 00 ADD LW EXT INSRT DME & SUPPLIES - PROSTHETICS NonFacility $ 369.57
L5666 00 ADD LOW EXTREM B DME & SUPPLIES - PROSTHETICS NonFacility $ 50.53
L5668 00 ADD LW EXTRM BK DME & SUPPLIES - PROSTHETICS NonFacility $ 72.88
L5670 00 ADD LW EXTRM BK DME & SUPPLIES - PROSTHETICS NonFacility $ 195.85
L5671 00 ADD LW EXTRM BK/ DME & SUPPLIES - PROSTHETICS NonFacility $ 359.02
L5672 00 ADD LW EXTRM BK DME & SUPPLIES - PROSTHETICS NonFacility $ 215.23
L5673 00 ADD LW EXT BK/AK DME & SUPPLIES - PROSTHETICS NonFacility $ 482.29
L5676 00 ADD LW EXT BK KN DME & SUPPLIES - PROSTHETICS NonFacility $ 261.55
L5677 00 ADD LW EXT BK KN DME & SUPPLIES - PROSTHETICS NonFacility $ 355.88
L5678 00 ADD LW EXT BELW DME & SUPPLIES - PROSTHETICS NonFacility $ 28.66
L5679 00 ADD LW EXT BK/AK DME & SUPPLIES - PROSTHETICS NonFacility $ 401.90
L5680 00 ADD LW EXTRM BK DME & SUPPLIES - PROSTHETICS NonFacility $ 219.69
L5681 00 ADD LW EXT BK/AK DME & SUPPLIES - PROSTHETICS NonFacility $ 853.27
L5682 00 ADD LW EXT BK TH DME & SUPPLIES - PROSTHETICS NonFacility $ 451.40
L5683 00 ADD LW EXT BK/AK DME & SUPPLIES - PROSTHETICS NonFacility $ 853.27
L5684 00 ADD LOW EXTREM B DME & SUPPLIES - PROSTHETICS NonFacility $ 34.74
L5685 00 ADD LOW EXT PROS DME & SUPPLIES - PROSTHETICS NonFacility $ 83.06
L5686 00 ADD LOW EXTREM B DME & SUPPLIES - PROSTHETICS NonFacility $ 36.87
L5688 00 ADD LW EXTRM BK DME & SUPPLIES - PROSTHETICS NonFacility $ 44.09
L5690 00 ADD LW EXTRM BK DME & SUPPLIES - PROSTHETICS NonFacility $ 70.62
L5692 00 ADD LW EXTRM AK DME & SUPPLIES - PROSTHETICS NonFacility $ 95.90
L5694 00 ADD LW EXTRM AK DME & SUPPLIES - PROSTHETICS NonFacility $ 130.94
L5695 00 ADD LW EXT AK PE DME & SUPPLIES - PROSTHETICS NonFacility $ 117.71
L5696 00 ADD LW EXTRM AK/ DME & SUPPLIES - PROSTHETICS NonFacility $ 133.54
L5697 00 ADD LW EXTRM AK/ DME & SUPPLIES - PROSTHETICS NonFacility $ 57.94
L5698 00 ADD LW EXTRM AK/ DME & SUPPLIES - PROSTHETICS NonFacility $ 75.29
L5699 00 ALL LOW EXTREM P DME & SUPPLIES - PROSTHETICS NonFacility $ 134.58
L5700 00 REPLCMT SOCKT BE DME & SUPPLIES - PROSTHETICS NonFacility $ 1976.61
L5701 00 REPL SCKT AK/DIS DME & SUPPLIES - PROSTHETICS NonFacility $ 2454.11
L5702 00 REPL SCKT HIP DI DME & SUPPLIES - PROSTHETICS NonFacility $ 3135.84
L5703 00 ANKLE SYMES MOLD DME & SUPPLIES - PROSTHETICS NonFacility $ 1509.85
L5704 00 CUSTOM SHAP PROT DME & SUPPLIES - PROSTHETICS NonFacility $ 380.05
L5705 00 CUSTOM SHAP PROT DME & SUPPLIES - PROSTHETICS NonFacility $ 670.46
L5706 00 CUSTOM SHAPED CO DME & SUPPLIES - PROSTHETICS NonFacility $ 657.78
L5707 00 CUSTOM SHAPED CO DME & SUPPLIES - PROSTHETICS NonFacility $ 892.86
L5710 00 ADD EXOSKL KNEE- DME & SUPPLIES - PROSTHETICS NonFacility $ 259.60
L5711 00 ADD EXO KNEE-SHI DME & SUPPLIES - PROSTHETICS NonFacility $ 376.88
L5712 00 ADD EXO KNEE-SHI DME & SUPPLIES - PROSTHETICS NonFacility $ 311.01
L5714 00 ADD EXO KNEE-SHI DME & SUPPLIES - PROSTHETICS NonFacility $ 301.90
L5716 00 ADD EXO KNEE-SHI DME & SUPPLIES - PROSTHETICS NonFacility $ 526.06
L5718 00 ADD EXO KNEE-SHI DME & SUPPLIES - PROSTHETICS NonFacility $ 657.51
L5722 00 ADD EXO KNEE-SHI DME & SUPPLIES - PROSTHETICS NonFacility $ 651.67
L5724 00 ADD KNEE-SHIN 1 DME & SUPPLIES - PROSTHETICS NonFacility $ 1089.45
L5726 00 ADD EXO KNEE-SHI DME & SUPPLIES - PROSTHETICS NonFacility $ 1255.57
L5728 00 ADD EXO KNEE-SHI DME & SUPPLIES - PROSTHETICS NonFacility $ 1717.45
L5780 00 ADD EXO KNEE-SHI DME & SUPPLIES - PROSTHETICS NonFacility $ 826.36
L5781 00 ADD LW LIMB PROS DME & SUPPLIES - PROSTHETICS NonFacility $ 2594.85
L5782 00 ADD LW LIMB PROS DME & SUPPLIES - PROSTHETICS NonFacility $ 2735.57
L5785 00 ADD EXOSKEL BELW DME & SUPPLIES - PROSTHETICS NonFacility $ 374.99
L5790 00 ADD EXOSKEL ABVE DME & SUPPLIES - PROSTHETICS NonFacility $ 518.97
L5795 00 ADD EXOSKEL HIP DME & SUPPLIES - PROSTHETICS NonFacility $ 774.96
L5810 00 ADD ENDOSKEL KNE DME & SUPPLIES - PROSTHETICS NonFacility $ 351.41
L5811 00 ADD ENDO KNEE-SH DME & SUPPLIES - PROSTHETICS NonFacility $ 526.40
L5812 00 ADD ENDO KNEE-SH DME & SUPPLIES - PROSTHETICS NonFacility $ 408.02
L5814 00 ADD ENDO KNEE-SH DME & SUPPLIES - PROSTHETICS NonFacility $ 2408.54
L5816 00 ADD ENDO KNEE-SH DME & SUPPLIES - PROSTHETICS NonFacility $ 613.83
L5818 00 ADD ENDO KNEE-SH DME & SUPPLIES - PROSTHETICS NonFacility $ 693.14
L5822 00 ADD ENDO KNEE-SH DME & SUPPLIES - PROSTHETICS NonFacility $ 1229.10
L5824 00 ADD ENDO KNEE-SH DME & SUPPLIES - PROSTHETICS NonFacility $ 1106.88
L5826 00 ADD ENDO KNEE-SH DME & SUPPLIES - PROSTHETICS NonFacility $ 2037.98
L5828 00 ADD ENDO KNEE-SH DME & SUPPLIES - PROSTHETICS NonFacility $ 2038.23
L5830 00 ADD ENDO KNEE-SH DME & SUPPLIES - PROSTHETICS NonFacility $ 1369.58
L5840 00 ADD ENDO KNEE-SH DME & SUPPLIES - PROSTHETICS NonFacility $ 2446.37
L5845 00 ADD ENDOSKL KNEE DME & SUPPLIES - PROSTHETICS NonFacility $ 1162.40
L5848 00 ADD ENDOSKEL KNE DME & SUPPLIES - PROSTHETICS NonFacility $ 697.37
L5850 00 ADD ENDO AK/HIP DME & SUPPLIES - PROSTHETICS NonFacility $ 92.33
L5855 00 ADD ENDO HIP DIS DME & SUPPLIES - PROSTHETICS NonFacility $ 222.90
L5856 00 ADD LOW EXT PROS DME & SUPPLIES - PROSTHETICS NonFacility $ 15590.89
L5857 00 ADD LOW EXT PROS DME & SUPPLIES - PROSTHETICS NonFacility $ 5546.77
L5858 00 ADD LW EXT PROS DME & SUPPLIES - PROSTHETICS NonFacility $ 12052.94
L5859 00 ADD LOW EXT PROS DME & SUPPLIES - PROSTHETICS NonFacility $ 10952.18
L5910 00 ADD ENDOSKEL BEL DME & SUPPLIES - PROSTHETICS NonFacility $ 261.41
L5920 00 ADD ENDOSKEL AK/ DME & SUPPLIES - PROSTHETICS NonFacility $ 382.96
L5925 00 ADD ENDO AK/HIP DME & SUPPLIES - PROSTHETICS NonFacility $ 242.52
L5930 00 ADD ENDO HI ACTV DME & SUPPLIES - PROSTHETICS NonFacility $ 2196.86
L5940 00 ADD ENDOSKEL BEL DME & SUPPLIES - PROSTHETICS NonFacility $ 362.04
L5950 00 ADD ENDOSKEL ABV DME & SUPPLIES - PROSTHETICS NonFacility $ 561.55
L5960 00 ADD ENDOSKL HIP DME & SUPPLIES - PROSTHETICS NonFacility $ 695.82
L5961 00 ADD ENDO SYS POL DME & SUPPLIES - PROSTHETICS NonFacility $ 3470.57
L5962 00 ADD ENDO BK FLXI DME & SUPPLIES - PROSTHETICS NonFacility $ 424.25
L5964 00 ADD ENDO AK FLXB DME & SUPPLIES - PROSTHETICS NonFacility $ 675.95
L5966 00 ADD ENDO HIP DIS DME & SUPPLIES - PROSTHETICS NonFacility $ 861.33
L5968 00 ADD LW LIMB PROS DME & SUPPLIES - PROSTHETICS NonFacility $ 2356.68
L5969 00 ADDITION ENDOSKE DME & SUPPLIES - PROSTHETICS NonFacility $ 11061.71
L5970 00 ALL LW EXTRM PRO DME & SUPPLIES - PROSTHETICS NonFacility $ 146.59
L5971 00 ALL LOWER EXTREM DME & SUPPLIES - PROSTHETICS NonFacility $ 146.59
L5972 00 ALL LOWER EXTREM DME & SUPPLIES - PROSTHETICS NonFacility $ 254.38
L5973 00 ENDOSKEL ANK FOO DME & SUPPLIES - PROSTHETICS NonFacility $ 12728.77
L5974 00 ALL LW EXTRM PRS DME & SUPPLIES - PROSTHETICS NonFacility $ 168.19
L5975 00 ALL LW EXTRM PRO DME & SUPPLIES - PROSTHETICS NonFacility $ 300.65
L5976 00 ALL LW EXTRM PRO DME & SUPPLIES - PROSTHETICS NonFacility $ 404.21
L5978 00 ALL LW EXTRM PRS DME & SUPPLIES - PROSTHETICS NonFacility $ 210.64
L5979 00 ALL LW XTRM PRST DME & SUPPLIES - PROSTHETICS NonFacility $ 1646.91
L5980 00 ALL LOW EXTREM P DME & SUPPLIES - PROSTHETICS NonFacility $ 2676.12
L5981 00 ALL LOW EXTRM PR DME & SUPPLIES - PROSTHETICS NonFacility $ 2078.83
L5982 00 ALL EXOSKL LW XT DME & SUPPLIES - PROSTHETICS NonFacility $ 417.27
L5984 00 ALL ENDOSKEL LOW DME & SUPPLIES - PROSTHETICS NonFacility $ 411.17
L5985 00 ALL ENDOSKL LW X DME & SUPPLIES - PROSTHETICS NonFacility $ 184.30
L5986 00 ALL LW EXTRM PRO DME & SUPPLIES - PROSTHETICS NonFacility $ 457.37
L5987 00 ALL LW EXTRM PRO DME & SUPPLIES - PROSTHETICS NonFacility $ 4665.31
L5988 00 ADD LW LMB PRSTH DME & SUPPLIES - PROSTHETICS NonFacility $ 1295.55
L5990 00 ADD LW EXTRM PRO DME & SUPPLIES - PROSTHETICS NonFacility $ 1176.55
L6000 00 PARTIAL HAND THU DME & SUPPLIES - PROSTHETICS NonFacility $ 959.01
L6010 00 PARTIAL HAND LIT DME & SUPPLIES - PROSTHETICS NonFacility $ 1067.22
L6020 00 PARTIAL HAND NO DME & SUPPLIES - PROSTHETICS NonFacility $ 995.01
L6026 00 TRANSCARPAL/MC/P DME & SUPPLIES - PROSTHETICS NonFacility $ 3217.33
L6050 00 WRST DSRTC MOLD DME & SUPPLIES - PROSTHETICS NonFacility $ 1371.10
L6055 00 WRST DSRTC MOLD DME & SUPPLIES - PROSTHETICS NonFacility $ 1910.95
L6100 00 BELW ELB MOLD SO DME & SUPPLIES - PROSTHETICS NonFacility $ 1389.12
L6110 00 BELOW ELBOW MOLD DME & SUPPLIES - PROSTHETICS NonFacility $ 1473.41
L6120 00 BELW ELB STEP-UP DME & SUPPLIES - PROSTHETICS NonFacility $ 1717.04
L6130 00 BELW ELB STMP AC DME & SUPPLIES - PROSTHETICS NonFacility $ 1868.46
L6200 00 ELB DSRTC MOLD S DME & SUPPLIES - PROSTHETICS NonFacility $ 1969.06
L6205 00 ELB DSRTC MOLD S DME & SUPPLIES - PROSTHETICS NonFacility $ 2628.38
L6250 00 ABOVE ELB INTERN DME & SUPPLIES - PROSTHETICS NonFacility $ 1938.20
L6300 00 SHLDR DISARTC IN DME & SUPPLIES - PROSTHETICS NonFacility $ 2689.05
L6310 00 SHOULDER DISARTI DME & SUPPLIES - PROSTHETICS NonFacility $ 2190.29
L6320 00 SHOULDER DISARTI DME & SUPPLIES - PROSTHETICS NonFacility $ 1233.46
L6350 00 INTRSCAP THOR IN DME & SUPPLIES - PROSTHETICS NonFacility $ 2827.13
L6360 00 INTERSCAPULAR TH DME & SUPPLIES - PROSTHETICS NonFacility $ 2298.97
L6370 00 INTERSCAPULAR TH DME & SUPPLIES - PROSTHETICS NonFacility $ 1465.97
L6380 00 IMMED POSTSURG R DME & SUPPLIES - PROSTHETICS NonFacility $ 830.23
L6382 00 IMMED POSTSURG R DME & SUPPLIES - PROSTHETICS NonFacility $ 1068.71
L6384 00 IMMED POSTSRG RI DME & SUPPLIES - PROSTHETICS NonFacility $ 1376.14
L6386 00 IMMED POSTSURG E DME & SUPPLIES - PROSTHETICS NonFacility $ 289.85
L6388 00 IMMED POSTSURG R DME & SUPPLIES - PROSTHETICS NonFacility $ 317.30
L6400 00 BE MOLD SCKT END DME & SUPPLIES - PROSTHETICS NonFacility $ 1674.79
L6450 00 ELB DISARTIC MOL DME & SUPPLIES - PROSTHETICS NonFacility $ 2225.29
L6500 00 ABOVE ELBOW MOLD DME & SUPPLIES - PROSTHETICS NonFacility $ 2227.10
L6550 00 SHLDR DISARTC MO DME & SUPPLIES - PROSTHETICS NonFacility $ 2752.30
L6570 00 INTRSCAP THOR MO DME & SUPPLIES - PROSTHETICS NonFacility $ 3159.10
L6580 00 PREP WRST DISART DME & SUPPLIES - PROSTHETICS NonFacility $ 1128.24
L6582 00 PREP WRST DISART DME & SUPPLIES - PROSTHETICS NonFacility $ 993.38
L6584 00 PREP ELB DISARTC DME & SUPPLIES - PROSTHETICS NonFacility $ 1477.32
L6586 00 PREP ELB DISARTI DME & SUPPLIES - PROSTHETICS NonFacility $ 1359.41
L6588 00 PREP SHLDR DISRT DME & SUPPLIES - PROSTHETICS NonFacility $ 2040.10
L6590 00 PREP SHLDR DSRTC DME & SUPPLIES - PROSTHETICS NonFacility $ 1898.92
L6600 00 UP EXTREM ADD PO DME & SUPPLIES - PROSTHETICS NonFacility $ 135.39
L6605 00 UPPER EXTREM ADD DME & SUPPLIES - PROSTHETICS NonFacility $ 133.68
L6610 00 UP EXTRM ADD FLX DME & SUPPLIES - PROSTHETICS NonFacility $ 120.17
L6611 00 ADD UPPER EXT PR DME & SUPPLIES - PROSTHETICS NonFacility $ 278.50
L6615 00 UP EXTREM ADD DI DME & SUPPLIES - PROSTHETICS NonFacility $ 125.38
L6616 00 UP EXT ADD-DSCNC DME & SUPPLIES - PROSTHETICS NonFacility $ 46.82
L6620 00 UPPER EXT ADD FL DME & SUPPLIES - PROSTHETICS NonFacility $ 218.84
L6621 00 UP EXTREM PROS A DME & SUPPLIES - PROSTHETICS NonFacility $ 1483.37
L6623 00 UP EXT ADD ROTAT DME & SUPPLIES - PROSTHETICS NonFacility $ 462.99
L6624 00 UPPER EXTREMITY DME & SUPPLIES - PROSTHETICS NonFacility $ 2547.42
L6625 00 UP EXT ADD ROTAT DME & SUPPLIES - PROSTHETICS NonFacility $ 383.88
L6628 00 UP EXTRM ADD QUI DME & SUPPLIES - PROSTHETICS NonFacility $ 345.76
L6629 00 UP EXT ADD QUIK DME & SUPPLIES - PROSTHETICS NonFacility $ 105.60
L6630 00 UP EXTREM ADD ST DME & SUPPLIES - PROSTHETICS NonFacility $ 155.56
L6632 00 UP EXTREM ADD LA DME & SUPPLIES - PROSTHETICS NonFacility $ 46.89
L6635 00 UPPER EXTREM ADD DME & SUPPLIES - PROSTHETICS NonFacility $ 127.13
L6637 00 UP EXTREM ADD NU DME & SUPPLIES - PROSTHETICS NonFacility $ 265.02
L6638 00 UP EXT ADD PROS DME & SUPPLIES - PROSTHETICS NonFacility $ 1621.78
L6640 00 UP EXTREM ADD SH DME & SUPPLIES - PROSTHETICS NonFacility $ 202.18
L6641 00 UP EXTRM ADD EXC DME & SUPPLIES - PROSTHETICS NonFacility $ 115.79
L6642 00 UP EXTRM ADD EXC DME & SUPPLIES - PROSTHETICS NonFacility $ 156.94
L6645 00 UP EXT ADD SHLDR DME & SUPPLIES - PROSTHETICS NonFacility $ 230.41
L6646 00 UP EXT ADD SHLDR DME & SUPPLIES - PROSTHETICS NonFacility $ 2045.43
L6647 00 UP EXTREM ADD SH DME & SUPPLIES - PROSTHETICS NonFacility $ 336.74
L6648 00 UP EXTREM ADD SH DME & SUPPLIES - PROSTHETICS NonFacility $ 2109.58
L6650 00 UP EXTRM ADD SHL DME & SUPPLIES - PROSTHETICS NonFacility $ 244.31
L6655 00 UP EXTREM ADD ST DME & SUPPLIES - PROSTHETICS NonFacility $ 54.22
L6660 00 UP EXTREM ADD HE DME & SUPPLIES - PROSTHETICS NonFacility $ 66.25
L6665 00 UP EXTREM ADD TE DME & SUPPLIES - PROSTHETICS NonFacility $ 33.25
L6670 00 UP EXTREM ADD HO DME & SUPPLIES - PROSTHETICS NonFacility $ 34.61
L6672 00 UP EXT ADD HRNSS DME & SUPPLIES - PROSTHETICS NonFacility $ 121.70
L6675 00 UPPER EXTREMITY DME & SUPPLIES - PROSTHETICS NonFacility $ 86.68
L6676 00 UPPER EXTREMITY DME & SUPPLIES - PROSTHETICS NonFacility $ 87.53
L6677 00 UP EXT ADD HARNE DME & SUPPLIES - PROSTHETICS NonFacility $ 192.38
L6680 00 UP EXTRM ADD TST DME & SUPPLIES - PROSTHETICS NonFacility $ 167.46
L6682 00 UP EXTRM ADD TST DME & SUPPLIES - PROSTHETICS NonFacility $ 185.15
L6684 00 UP EXTRM ADD TST DME & SUPPLIES - PROSTHETICS NonFacility $ 251.59
L6686 00 UPPER EXTREM ADD DME & SUPPLIES - PROSTHETICS NonFacility $ 426.11
L6687 00 UP EXT ADD FRME DME & SUPPLIES - PROSTHETICS NonFacility $ 416.32
L6688 00 UP EXT ADD FRME DME & SUPPLIES - PROSTHETICS NonFacility $ 382.36
L6689 00 UP EXT ADD FRAME DME & SUPPLIES - PROSTHETICS NonFacility $ 486.33
L6690 00 UP EXT ADD FRAME DME & SUPPLIES - PROSTHETICS NonFacility $ 496.30
L6691 00 UPPER EXTREM ADD DME & SUPPLIES - PROSTHETICS NonFacility $ 249.15
L6692 00 UP EXTREM ADD SI DME & SUPPLIES - PROSTHETICS NonFacility $ 403.64
L6693 00 UP EXT ADD LOCK DME & SUPPLIES - PROSTHETICS NonFacility $ 1841.16
L6694 00 ADD UP EXT PROS DME & SUPPLIES - PROSTHETICS NonFacility $ 482.29
L6695 00 ADD UP EXT PROS DME & SUPPLIES - PROSTHETICS NonFacility $ 401.90
L6696 00 ADD UP EXT PROS DME & SUPPLIES - PROSTHETICS NonFacility $ 853.27
L6697 00 ADD UP EXT PROS DME & SUPPLIES - PROSTHETICS NonFacility $ 853.27
L6698 00 ADD UP EXT PROS DME & SUPPLIES - PROSTHETICS NonFacility $ 359.02
L6703 00 TERMINAL DEVICE DME & SUPPLIES - PROSTHETICS NonFacility $ 244.73
L6704 00 TERMINAL DEVICE DME & SUPPLIES - PROSTHETICS NonFacility $ 440.87
L6706 00 TERMINAL DEVICE DME & SUPPLIES - PROSTHETICS NonFacility $ 262.67
L6707 00 TERMINAL DEVICE DME & SUPPLIES - PROSTHETICS NonFacility $ 968.16
L6708 00 TERMINAL DEVICE DME & SUPPLIES - PROSTHETICS NonFacility $ 629.69
L6709 00 TERMINAL DEVICE DME & SUPPLIES - PROSTHETICS NonFacility $ 912.05
L6711 00 TERMINAL DEVICE, DME & SUPPLIES - PROSTHETICS NonFacility $ 490.39
L6712 00 TERMINAL DEVICE, DME & SUPPLIES - PROSTHETICS NonFacility $ 902.91
L6713 00 TERMINAL DEVICE, DME & SUPPLIES - PROSTHETICS NonFacility $ 1139.55
L6714 00 TERMINAL DEVICE, DME & SUPPLIES - PROSTHETICS NonFacility $ 965.20
L6715 00 TERM DEV MX ARTI DME & SUPPLIES - PROSTHETICS NonFacility $ 2356.34
L6721 00 TERMINAL DEVICE, DME & SUPPLIES - PROSTHETICS NonFacility $ 1715.54
L6722 00 TERMINAL DEVICE, DME & SUPPLIES - PROSTHETICS NonFacility $ 1478.93
L6805 00 ADDITION TERMINA DME & SUPPLIES - PROSTHETICS NonFacility $ 245.57
L6810 00 ADDITION TERMINA DME & SUPPLIES - PROSTHETICS NonFacility $ 134.63
L6880 00 ELEC HND SWTCH/M DME & SUPPLIES - PROSTHETICS NonFacility $ 17832.20
L6881 00 AUTOMATIC GRASP DME & SUPPLIES - PROSTHETICS NonFacility $ 2651.32
L6882 00 MICRPROCSS CNTRL DME & SUPPLIES - PROSTHETICS NonFacility $ 2011.16
L6883 00 REPL SOCKET BE/W DME & SUPPLIES - PROSTHETICS NonFacility $ 1145.37
L6884 00 REPL SOCKET ABOV DME & SUPPLIES - PROSTHETICS NonFacility $ 1611.36
L6885 00 REPL SOCKET SD/I DME & SUPPLIES - PROSTHETICS NonFacility $ 2298.97
L6890 00 ADD UP EXT PROST DME & SUPPLIES - PROSTHETICS NonFacility $ 122.76
L6895 00 ADD UP EXT PROST DME & SUPPLIES - PROSTHETICS NonFacility $ 403.03
L6900 00 HND REST PART W/ DME & SUPPLIES - PROSTHETICS NonFacility $ 1090.21
L6905 00 HND REST PART HN DME & SUPPLIES - PROSTHETICS NonFacility $ 1059.71
L6910 00 HND REST PART HN DME & SUPPLIES - PROSTHETICS NonFacility $ 1032.37
L6915 00 HAND REST REPLCM DME & SUPPLIES - PROSTHETICS NonFacility $ 451.85
L6920 00 WRST DISARTC OTT DME & SUPPLIES - PROSTHETICS NonFacility $ 4816.91
L6925 00 WRST DSRTC OTTO DME & SUPPLIES - PROSTHETICS NonFacility $ 5561.05
L6930 00 BELW ELB OTTO BO DME & SUPPLIES - PROSTHETICS NonFacility $ 4846.78
L6935 00 BELW ELB OTTO BO DME & SUPPLIES - PROSTHETICS NonFacility $ 5665.16
L6940 00 ELB DISRTC OTTO DME & SUPPLIES - PROSTHETICS NonFacility $ 6332.63
L6945 00 ELB DISRTC OTTO DME & SUPPLIES - PROSTHETICS NonFacility $ 7367.27
L6950 00 ABVE ELB OTTO BO DME & SUPPLIES - PROSTHETICS NonFacility $ 7197.92
L6955 00 ABVE ELB OTTO BO DME & SUPPLIES - PROSTHETICS NonFacility $ 8620.50
L6960 00 SHLDR DSRTC OTTO DME & SUPPLIES - PROSTHETICS NonFacility $ 8694.42
L6965 00 SHLDR DSRTC OTTO DME & SUPPLIES - PROSTHETICS NonFacility $ 10229.39
L6970 00 INTERSCAP-THOR O DME & SUPPLIES - PROSTHETICS NonFacility $ 10526.99
L6975 00 INTERSCAP-THOR O DME & SUPPLIES - PROSTHETICS NonFacility $ 11534.24
L7007 00 ELECTRIC HAND SW DME & SUPPLIES - PROSTHETICS NonFacility $ 2590.46
L7008 00 ELECTRIC HAND SW DME & SUPPLIES - PROSTHETICS NonFacility $ 4077.12
L7009 00 ELECTRIC HOOK SW DME & SUPPLIES - PROSTHETICS NonFacility $ 2643.09
L7040 00 PREHENSILE ACTUA DME & SUPPLIES - PROSTHETICS NonFacility $ 2034.80
L7045 00 ELEC HOOK SWITCH DME & SUPPLIES - PROSTHETICS NonFacility $ 1166.63
L7170 00 ELEC ELB HOSMER/ DME & SUPPLIES - PROSTHETICS NonFacility $ 4232.12
L7180 00 ELEC ELB MICROPR DME & SUPPLIES - PROSTHETICS NonFacility $ 23578.18
L7181 00 ELEC ELB MICROPR DME & SUPPLIES - PROSTHETICS NonFacility $ 25985.09
L7185 00 ELEC ELB ADOLES DME & SUPPLIES - PROSTHETICS NonFacility $ 4285.58
L7186 00 ELEC ELB CHLD VR DME & SUPPLIES - PROSTHETICS NonFacility $ 6384.47
L7190 00 ELEC ELB ADOLES DME & SUPPLIES - PROSTHETICS NonFacility $ 5452.59
L7191 00 ELEC ELB CHLD VR DME & SUPPLIES - PROSTHETICS NonFacility $ 6671.39
L7259 00 ELECTRONIC WRIST DME & SUPPLIES - PROSTHETICS NonFacility $ 2742.54
L7360 00 SIX VOLT BATTERY DME & SUPPLIES - PROSTHETICS NonFacility $ 164.13
L7362 00 BATTERY CHARGER DME & SUPPLIES - PROSTHETICS NonFacility $ 180.84
L7364 00 TWELVE VOLT BATT DME & SUPPLIES - PROSTHETICS NonFacility $ 287.61
L7366 00 BATTERY CHARGER DME & SUPPLIES - PROSTHETICS NonFacility $ 387.42
L7367 00 LITHIUM ION BATT DME & SUPPLIES - PROSTHETICS NonFacility $ 252.49
L7368 00 LITHIUM ION BATT DME & SUPPLIES - PROSTHETICS NonFacility $ 327.30
L7400 00 ADD UP EXTREM PR DME & SUPPLIES - PROSTHETICS NonFacility $ 198.77
L7401 00 ADD UP EXTREM PR DME & SUPPLIES - PROSTHETICS NonFacility $ 222.51
L7402 00 ADD UP EXT PROS DME & SUPPLIES - PROSTHETICS NonFacility $ 240.30
L7403 00 ADD UP EXTREM PR DME & SUPPLIES - PROSTHETICS NonFacility $ 238.83
L7404 00 ADD UP EXTREM PR DME & SUPPLIES - PROSTHETICS NonFacility $ 360.46
L7405 00 ADD UP EXTREM PR DME & SUPPLIES - PROSTHETICS NonFacility $ 471.42
L7520 00 REPAIR PROSTHETI DME & SUPPLIES - PROSTHETICS NonFacility $ 22.79
L7700 00 GASKET/SEAL USE DME & SUPPLIES - PROSTHETICS NonFacility $ 98.21
L7900 00 MALE VACUUM EREC DME & SUPPLIES - PROSTHETICS NonFacility $ 347.80
L7902 00 TENSION RING VAC DME & SUPPLIES - PROSTHETICS NonFacility $ 14.19
L8000 00 BREAST PROS MAST DME & SUPPLIES - PROSTHETICS NonFacility $ 26.35
L8001 00 BREAST PROS MAST DME & SUPPLIES - PROSTHETICS NonFacility $ 81.34
L8002 00 BREAST PROS MAST DME & SUPPLIES - PROSTHETICS NonFacility $ 106.99
L8010 00 BREAST PROSTHESI DME & SUPPLIES - PROSTHETICS NonFacility $ 30.02
L8015 00 EXT BREAST PROS DME & SUPPLIES - PROSTHETICS NonFacility $ 38.96
L8020 00 BREAST PROSTHESI DME & SUPPLIES - PROSTHETICS NonFacility $ 144.79
L8030 00 BREAST PROSTH SI DME & SUPPLIES - PROSTHETICS NonFacility $ 227.71
L8031 00 BREAST PROSTHESI DME & SUPPLIES - PROSTHETICS NonFacility $ 256.10
L8032 00 NIPPLE PROSTHESI DME & SUPPLIES - PROSTHETICS NonFacility $ 28.64
L8035 00 CSTM BRST PROSTH DME & SUPPLIES - PROSTHETICS NonFacility $ 2375.95
L8040 00 NASL PROSTH PROV DME & SUPPLIES - PROSTHETICS NonFacility $ 1606.24
L8040 KM NASL PROSTH PROV DME & SUPPLIES - PROSTHETICS NonFacility $ 1525.92
L8040 KN NASL PROSTH PROV DME & SUPPLIES - PROSTHETICS NonFacility $ 642.49
L8041 00 MIDFCE PROSTH PR DME & SUPPLIES - PROSTHETICS NonFacility $ 1936.05
L8041 KM MIDFCE PROSTH PR DME & SUPPLIES - PROSTHETICS NonFacility $ 1839.25
L8041 KN MIDFCE PROSTH PR DME & SUPPLIES - PROSTHETICS NonFacility $ 774.42
L8042 00 ORB PROSTH PROVI DME & SUPPLIES - PROSTHETICS NonFacility $ 2175.35
L8042 KM ORB PROSTH PROVI DME & SUPPLIES - PROSTHETICS NonFacility $ 2066.57
L8042 KN ORB PROSTH PROVI DME & SUPPLIES - PROSTHETICS NonFacility $ 870.14
L8043 00 UPPER FCE PROSTH DME & SUPPLIES - PROSTHETICS NonFacility $ 2436.39
L8043 KM UPPER FCE PROSTH DME & SUPPLIES - PROSTHETICS NonFacility $ 2314.57
L8043 KN UPPER FCE PROSTH DME & SUPPLIES - PROSTHETICS NonFacility $ 974.55
L8044 00 HEMI-FCE PROSTH DME & SUPPLIES - PROSTHETICS NonFacility $ 2697.43
L8044 KM HEMI-FCE PROSTH DME & SUPPLIES - PROSTHETICS NonFacility $ 2562.55
L8044 KN HEMI-FCE PROSTH DME & SUPPLIES - PROSTHETICS NonFacility $ 1078.97
L8045 00 AURICULAR PROSTH DME & SUPPLIES - PROSTHETICS NonFacility $ 1774.91
L8045 KM AURICULAR PROSTH DME & SUPPLIES - PROSTHETICS NonFacility $ 1686.17
L8045 KN AURICULAR PROSTH DME & SUPPLIES - PROSTHETICS NonFacility $ 709.97
L8046 00 PART FCE PROSTH DME & SUPPLIES - PROSTHETICS NonFacility $ 1740.28
L8046 KM PART FCE PROSTH DME & SUPPLIES - PROSTHETICS NonFacility $ 1653.26
L8046 KN PART FCE PROSTH DME & SUPPLIES - PROSTHETICS NonFacility $ 696.11
L8047 00 NASL SEPTAL PROS DME & SUPPLIES - PROSTHETICS NonFacility $ 891.89
L8047 KM NASL SEPTAL PROS DME & SUPPLIES - PROSTHETICS NonFacility $ 847.30
L8047 KN NASL SEPTAL PROS DME & SUPPLIES - PROSTHETICS NonFacility $ 356.76
L8049 00 REPAIR MAXILLOFA DME & SUPPLIES - PROSTHETICS NonFacility $ 19.87
L8300 00 TRUSS SINGLE WIT DME & SUPPLIES - PROSTHETICS NonFacility $ 60.89
L8310 00 TRUSS DOUBLE WIT DME & SUPPLIES - PROSTHETICS NonFacility $ 96.12
L8320 00 TRUSS ADDITION S DME & SUPPLIES - PROSTHETICS NonFacility $ 38.58
L8330 00 TRUSS ADD STANDA DME & SUPPLIES - PROSTHETICS NonFacility $ 35.63
L8400 00 PROSTHETIC SHEAT DME & SUPPLIES - PROSTHETICS NonFacility $ 11.36
L8410 00 PROSTHETIC SHEAT DME & SUPPLIES - PROSTHETICS NonFacility $ 14.95
L8415 00 PROSTHETIC SHEAT DME & SUPPLIES - PROSTHETICS NonFacility $ 15.47
L8417 00 PROS SHEATH/SOCK DME & SUPPLIES - PROSTHETICS NonFacility $ 48.75
L8420 00 PROSTHETIC SOCK DME & SUPPLIES - PROSTHETICS NonFacility $ 14.04
L8430 00 PROSTHETIC SOCK DME & SUPPLIES - PROSTHETICS NonFacility $ 15.98
L8435 00 PROSTH SOCK MX P DME & SUPPLIES - PROSTHETICS NonFacility $ 15.17
L8440 00 PROSTHETIC SHRIN DME & SUPPLIES - PROSTHETICS NonFacility $ 30.19
L8460 00 PROSTHETIC SHRIN DME & SUPPLIES - PROSTHETICS NonFacility $ 48.11
L8465 00 PROSTHETIC SHRIN DME & SUPPLIES - PROSTHETICS NonFacility $ 35.21
L8470 00 PROSTH SOCK 1 PL DME & SUPPLIES - PROSTHETICS NonFacility $ 4.82
L8480 00 PROSTH SOCK 1 PL DME & SUPPLIES - PROSTHETICS NonFacility $ 6.64
L8485 00 PROSTH SOCK 1 PL DME & SUPPLIES - PROSTHETICS NonFacility $ 8.03
L8500 00 ARTIFICIAL LARYN DME & SUPPLIES - PROSTHETICS NonFacility $ 476.34
L8501 00 TRACHEOSTOMY SPE DME & SUPPLIES - PROSTHETICS NonFacility $ 87.19
L8507 00 TRACHEO-ESOPH VO DME & SUPPLIES - PROSTHETICS NonFacility $ 27.16
L8509 00 TRACHEO-ESOPH VO DME & SUPPLIES - PROSTHETICS NonFacility $ 70.82
L8510 00 VOICE AMPLIFIER DME & SUPPLIES - PROSTHETICS NonFacility $ 163.88
L8511 00 INSRT INDWLL TRA DME & SUPPLIES - PROSTHETICS NonFacility $ 47.17
L8512 00 GELATIN CAPS/EQU DME & SUPPLIES - PROSTHETICS NonFacility $ 1.40
L8513 00 CLEANING DEVC US DME & SUPPLIES - PROSTHETICS NonFacility $ 3.37
L8514 00 TRACHEOESOPH PUN DME & SUPPLIES - PROSTHETICS NonFacility $ 61.16
L8515 00 GELATIN CAP APPL DME & SUPPLIES - PROSTHETICS NonFacility $ 40.93
L8600 00 IMPL BREAST PROS DME & SUPPLIES - PROSTHETICS NonFacility $ 450.71
L8603 00 INJ COLL IMPL UR DME & SUPPLIES - PROSTHETICS NonFacility $ 284.62
L8605 00 INJ BULK AGT DX/ DME & SUPPLIES - PROSTHETICS NonFacility $ 538.83
L8606 00 INJ SYNTH IMPL U DME & SUPPLIES - PROSTHETICS NonFacility $ 142.72
L8607 00 INJ BULKING AGT DME & SUPPLIES - PROSTHETICS NonFacility $ 32.95
L8609 00 ARTIFICIAL CORNE DME & SUPPLIES - PROSTHETICS NonFacility $ 4226.47
L8610 00 OCULAR IMPLANT DME & SUPPLIES - PROSTHETICS NonFacility $ 422.46
L8612 00 AQUEOUS SHUNT DME & SUPPLIES - PROSTHETICS NonFacility $ 438.87
L8613 00 OSSICULA IMPLANT DME & SUPPLIES - PROSTHETICS NonFacility $ 185.60
L8614 00 COCHLEAR DEVICE DME & SUPPLIES - PROSTHETICS NonFacility $ 12543.96
L8615 00 HEADSET/HEADPIEC DME & SUPPLIES - PROSTHETICS NonFacility $ 292.56
L8616 00 MICROPHONE COCHL DME & SUPPLIES - PROSTHETICS NonFacility $ 68.14
L8617 00 TRANSMITTING COI DME & SUPPLIES - PROSTHETICS NonFacility $ 59.52
L8618 00 TRNSMT CBL USE C DME & SUPPLIES - PROSTHETICS NonFacility $ 17.00
L8619 00 COCHLEAR IMPL EX DME & SUPPLIES - PROSTHETICS NonFacility $ 5384.36
L8621 00 ZINC AIR BATT CO DME & SUPPLIES - PROSTHETICS NonFacility $ 0.41
L8622 00 ALKALIN BATTRY C DME & SUPPLIES - PROSTHETICS NonFacility $ 0.22
L8623 00 LITHIUM ION BATT DME & SUPPLIES - PROSTHETICS NonFacility $ 41.97
L8624 00 LIB CI/AUD OSSEO DME & SUPPLIES - PROSTHETICS NonFacility $ 104.60
L8625 00 EXT RECHARGING S DME & SUPPLIES - PROSTHETICS NonFacility $ 147.70
L8627 00 COCHLEAR IMPL EX DME & SUPPLIES - PROSTHETICS NonFacility $ 5143.04
L8628 00 COCHLEAR IMPLANT DME & SUPPLIES - PROSTHETICS NonFacility $ 912.85
L8629 00 TRANSMITTING COI DME & SUPPLIES - PROSTHETICS NonFacility $ 130.64
L8630 00 METACARPOPHALANG DME & SUPPLIES - PROSTHETICS NonFacility $ 243.17
L8631 00 MPJ REPLCMT TWO/ DME & SUPPLIES - PROSTHETICS NonFacility $ 1427.17
L8641 00 METATARSAL JOINT DME & SUPPLIES - PROSTHETICS NonFacility $ 252.65
L8642 00 HALLUX IMPLANT DME & SUPPLIES - PROSTHETICS NonFacility $ 204.93
L8658 00 INTERPHALANGEAL DME & SUPPLIES - PROSTHETICS NonFacility $ 220.28
L8659 00 IP FNGR JNT REPL DME & SUPPLIES - PROSTHETICS NonFacility $ 1251.77
L8670 00 VASC GRAFT MATER DME & SUPPLIES - PROSTHETICS NonFacility $ 361.59
L8679 00 IMPLANTABLE NEUR DME & SUPPLIES - PROSTHETICS NonFacility $ 6411.97
L8680 00 IMPLANTABLE NEUR DME & SUPPLIES - PROSTHETICS NonFacility $ 301.35
L8681 00 PATIENT PROGRAMM DME & SUPPLIES - PROSTHETICS NonFacility $ 778.64
L8682 00 IMPLANTABLE NEUR DME & SUPPLIES - PROSTHETICS NonFacility $ 3911.03
L8683 00 RF TRNSMT USE W/ DME & SUPPLIES - PROSTHETICS NonFacility $ 3442.60
L8684 00 RF TRNSMT IMPL S DME & SUPPLIES - PROSTHETICS NonFacility $ 491.48
L8685 00 IMPLANT NEUROSTI DME & SUPPLIES - PROSTHETICS NonFacility $ 8578.77
L8686 00 IMPLANT NEUROSTI DME & SUPPLIES - PROSTHETICS NonFacility $ 5473.94
L8687 00 IMPLANT NEUROSTI DME & SUPPLIES - PROSTHETICS NonFacility $ 11164.41
L8688 00 IMPLANT NEUROSTI DME & SUPPLIES - PROSTHETICS NonFacility $ 7123.80
L8689 00 EXTERNAL RECHARG DME & SUPPLIES - PROSTHETICS NonFacility $ 26.98
L8690 00 AUDITORY OSSEOIN DME & SUPPLIES - PROSTHETICS NonFacility $ 3088.26
L8691 00 AUD OI DEVC EXT DME & SUPPLIES - PROSTHETICS NonFacility $ 1731.08
L8693 00 AUD OSSEOINTEGRA DME & SUPPLIES - PROSTHETICS NonFacility $ 1105.19
L8694 00 AUD OSSEOINTEG D DME & SUPPLIES - PROSTHETICS NonFacility $ 738.55
L8695 00 EXTERNAL RECHARG DME & SUPPLIES - PROSTHETICS NonFacility $ 11.28
L8696 00 ANTENNA FOR USE DME & SUPPLIES - PROSTHETICS NonFacility $ 167.17

























